(dp0
I0
(dp1
S'best_curve'
p2
cnumpy.core.multiarray
_reconstruct
p3
(cnumpy
ndarray
p4
(I0
tp5
S'b'
p6
tp7
Rp8
(I1
(L13L
tp9
cnumpy
dtype
p10
(S'f8'
p11
I0
I1
tp12
Rp13
(I3
S'<'
p14
NNNI-1
I-1
I0
tp15
bI00
S'\xcd\xb1\x9a\xde\x13\xecg@\x86jo\xe5l\x07s@\xaa\xc6\xb2\xfdc\xdc}@\x0f\xf7;Y@\xb7\x84@9\x1bQE\x1c\xee\x8b@\xb2\x1f\xb3\x18|\x92\x91@\x9f>%-\x1a\x8f\x94@bI)\xb7\xc8\xf6\x97@tow\x12N\x90\x99@R$ \x9b\x00j\x9a@\x01\xd3w|57\x9b@\xc4:\xf9\xaesM\x9a@cd\xd8\xddBw\x98@'
p16
tp17
bsS'pq0'
p18
(lp19
cnumpy.core.multiarray
scalar
p20
(g13
S'\x18\xa2\xf1\xea\xb7\x9a~?'
p21
tp22
Rp23
ag20
(g13
S'r\xb0\xf5\xf5\xc8W\xb4?'
p24
tp25
Rp26
asS'steps'
p27
I38
sS'params'
p28
(F0.006500000000000001
F0.09950000000000002
g20
(g13
S'q\x10p\xebC\xc8\xd5@'
p29
tp30
Rp31
tp32
sS'fitness'
p33
g20
(g13
S'\xa9\xd2\x00\x02\x98\x1a\xee?'
p34
tp35
Rp36
sS'path'
p37
(lp38
(F0.009500000000000001
F0.0845
tp39
a(F0.0065
F0.09450000000000001
tp40
a(F0.006500000000000001
F0.09950000000000002
tp41
a(F0.006500000000000001
F0.10450000000000002
tp42
a(F0.0075
F0.0795
tp43
a(F0.0075
F0.08950000000000001
tp44
a(F0.0085
F0.0795
tp45
a(F0.0055000000000000005
F0.09450000000000001
tp46
a(F0.0085
F0.0845
tp47
a(F0.0085
F0.09950000000000002
tp48
a(F0.0065
F0.0795
tp49
a(F0.0075
F0.09450000000000001
tp50
a(F0.006500000000000001
F0.08950000000000001
tp51
a(F0.0065
F0.08950000000000001
tp52
a(F0.0055000000000000005
F0.10450000000000002
tp53
a(F0.009500000000000001
F0.0795
tp54
a(F0.009500000000000001
F0.0745
tp55
a(F0.007500000000000001
F0.0795
tp56
a(F0.006500000000000001
F0.09450000000000001
tp57
a(F0.0085
F0.0745
tp58
a(F0.0065
F0.0845
tp59
a(F0.009500000000000001
F0.08950000000000001
tp60
a(F0.0055000000000000005
F0.10950000000000003
tp61
a(F0.006500000000000001
F0.10950000000000003
tp62
a(F0.007500000000000001
F0.10950000000000003
tp63
a(F0.0075
F0.0845
tp64
a(F0.0055000000000000005
F0.09950000000000002
tp65
a(F0.007500000000000001
F0.09450000000000001
tp66
a(F0.007500000000000001
F0.0745
tp67
a(F0.007500000000000001
F0.09950000000000002
tp68
a(F0.0085
F0.08950000000000001
tp69
a(F0.0075
F0.0745
tp70
a(F0.007500000000000001
F0.08950000000000001
tp71
a(F0.0085
F0.09450000000000001
tp72
a(F0.0065
F0.0745
tp73
a(F0.009500000000000001
F0.09450000000000001
tp74
a(F0.007500000000000001
F0.10450000000000002
tp75
a(F0.007500000000000001
F0.0845
tp76
assI1
(dp77
g2
g3
(g4
(I0
tp78
g6
tp79
Rp80
(I1
(L13L
tp81
g13
I00
S'ZZi\xbb\x06\x02`@E\xbfP\xb6p\xbfo@P\xacZ\x18\x15%y@x\xe6CZ\r>\x83@_\x0b\x15\xef;)\x8b@\xdb\xf9\xe6\x1a`F\x91@\x81\x9c\xd1\x9dV\x1e\x95@\xd2Q{\xfc\xdf\xa2\x98@\xbbo\xe8\x97?\xd4\x9a@e|\x04\xef`G\x9c@\xad\xb9\x00"\xcb*\x9b@\x8dx\r\x19/!\x99@\x1fp\xe1U\xe0\xaf\x96@'
p82
tp83
bsg18
(lp84
g20
(g13
S'\x86\x91\xe1}\xd8\xb1w?'
p85
tp86
Rp87
ag20
(g13
S'\xb7\x87\xffRaR\xb4?'
p88
tp89
Rp90
asg27
I54
sg28
(F0.0048
F0.12940000000000004
g20
(g13
S'\x17\xc0\xf6\x96\x08\t\xd3@'
p91
tp92
Rp93
tp94
sg33
g20
(g13
S'\x8by$\xed\xc0t\xee?'
p95
tp96
Rp97
sg37
(lp98
(F0.0068
F0.09940000000000002
tp99
a(F0.0037999999999999996
F0.13940000000000005
tp100
a(F0.0058
F0.10940000000000003
tp101
a(F0.0037999999999999996
F0.11440000000000003
tp102
a(F0.0058
F0.0794
tp103
a(F0.0068
F0.0794
tp104
a(F0.0078
F0.0844
tp105
a(F0.0068
F0.11440000000000003
tp106
a(F0.0048
F0.12940000000000004
tp107
a(F0.0078
F0.10440000000000002
tp108
a(F0.0058
F0.0744
tp109
a(F0.0048
F0.0844
tp110
a(F0.0048
F0.09440000000000001
tp111
a(F0.0058
F0.09440000000000001
tp112
a(F0.0068
F0.10940000000000003
tp113
a(F0.0068
F0.0744
tp114
a(F0.0058
F0.12940000000000004
tp115
a(F0.0058
F0.11940000000000003
tp116
a(F0.0068
F0.0844
tp117
a(F0.0048
F0.11940000000000003
tp118
a(F0.0037999999999999996
F0.12940000000000004
tp119
a(F0.008799999999999999
F0.08940000000000001
tp120
a(F0.0068
F0.09440000000000001
tp121
a(F0.0048
F0.13440000000000005
tp122
a(F0.0078
F0.10940000000000003
tp123
a(F0.0058
F0.09940000000000002
tp124
a(F0.0078
F0.09940000000000002
tp125
a(F0.0048
F0.12440000000000004
tp126
a(F0.0058
F0.0844
tp127
a(F0.0048
F0.0744
tp128
a(F0.0037999999999999996
F0.13440000000000005
tp129
a(F0.0058
F0.11440000000000003
tp130
a(F0.0048
F0.0794
tp131
a(F0.008799999999999999
F0.09440000000000001
tp132
a(F0.0058
F0.13440000000000005
tp133
a(F0.0058
F0.10440000000000002
tp134
a(F0.0068
F0.11940000000000003
tp135
a(F0.0078
F0.0794
tp136
a(F0.0048
F0.09940000000000002
tp137
a(F0.0048
F0.10940000000000003
tp138
a(F0.0078
F0.08940000000000001
tp139
a(F0.0068
F0.10440000000000002
tp140
a(F0.0037999999999999996
F0.11940000000000003
tp141
a(F0.008799999999999999
F0.0844
tp142
a(F0.0048
F0.08940000000000001
tp143
a(F0.0078
F0.09440000000000001
tp144
a(F0.0048
F0.13940000000000005
tp145
a(F0.0048
F0.10440000000000002
tp146
a(F0.0037999999999999996
F0.12440000000000004
tp147
a(F0.0068
F0.08940000000000001
tp148
a(F0.0048
F0.11440000000000003
tp149
a(F0.0058
F0.13940000000000005
tp150
a(F0.0058
F0.08940000000000001
tp151
a(F0.0058
F0.12440000000000004
tp152
assI2
(dp153
g2
g3
(g4
(I0
tp154
g6
tp155
Rp156
(I1
(L13L
tp157
g13
I00
S'V\x85\xacM\xc1\xfdd@\x08\xb8Ecl\x89q@T\xaf\xe1\xd6%\xc1{@\x1b\x8a?\xf8\x93\x10\x84@x\xff\xae\xb4\x1f\x1b\x8b@Y\xe3\xf3\xa9\xbdJ\x91@\xa7\xbdx\xf3c\x10\x95@\x18\xdb\xac\xbb\xb2\xde\x97@Mh\xfb\xcc[G\x9a@\xe8\xf2\xcf\xd6C\x0f\x9b@\xcf\xe9W\x11w:\x9b@\xbd\xfd\xb2\xafI\x05\x9a@hd\xc4A:\xd6\x97@'
p158
tp159
bsg18
(lp160
g20
(g13
S'\x1a<\x9d4\xa9\x15|?'
p161
tp162
Rp163
ag20
(g13
S'B\xbd\xdf\x1a\x06m\xb4?'
p164
tp165
Rp166
asg27
I49
sg28
(F0.005900000000000001
F0.10980000000000002
g20
(g13
S'H\xc3\x89\xa0!\xae\xd4@'
p167
tp168
Rp169
tp170
sg33
g20
(g13
S'\x9c\xd9\xf8to-\xee?'
p171
tp172
Rp173
sg37
(lp174
(F0.004900000000000001
F0.11480000000000003
tp175
a(F0.006900000000000001
F0.09480000000000001
tp176
a(F0.0059
F0.0748
tp177
a(F0.0059
F0.09980000000000001
tp178
a(F0.0069
F0.10980000000000002
tp179
a(F0.006900000000000001
F0.0848
tp180
a(F0.0079
F0.0748
tp181
a(F0.005900000000000001
F0.10980000000000002
tp182
a(F0.0069
F0.0748
tp183
a(F0.0059
F0.0848
tp184
a(F0.0059
F0.0898
tp185
a(F0.008900000000000002
F0.0898
tp186
a(F0.0059
F0.09480000000000001
tp187
a(F0.0059
F0.10980000000000002
tp188
a(F0.0079
F0.09980000000000001
tp189
a(F0.0079
F0.0898
tp190
a(F0.008900000000000002
F0.0798
tp191
a(F0.008900000000000002
F0.09480000000000001
tp192
a(F0.004900000000000001
F0.09480000000000001
tp193
a(F0.0069
F0.10480000000000002
tp194
a(F0.0079
F0.09480000000000001
tp195
a(F0.0069
F0.0798
tp196
a(F0.0069
F0.09480000000000001
tp197
a(F0.005900000000000001
F0.11480000000000003
tp198
a(F0.005900000000000001
F0.0898
tp199
a(F0.0079
F0.0798
tp200
a(F0.008900000000000002
F0.0848
tp201
a(F0.005900000000000001
F0.09980000000000001
tp202
a(F0.0079
F0.0848
tp203
a(F0.0049
F0.09980000000000001
tp204
a(F0.0049
F0.10980000000000002
tp205
a(F0.0059
F0.0798
tp206
a(F0.005900000000000001
F0.09480000000000001
tp207
a(F0.006900000000000001
F0.09980000000000001
tp208
a(F0.0069
F0.09980000000000001
tp209
a(F0.004900000000000001
F0.10980000000000002
tp210
a(F0.006900000000000001
F0.11480000000000003
tp211
a(F0.006900000000000001
F0.10480000000000002
tp212
a(F0.006900000000000001
F0.0898
tp213
a(F0.005900000000000001
F0.10480000000000002
tp214
a(F0.006900000000000001
F0.10980000000000002
tp215
a(F0.004900000000000001
F0.10480000000000002
tp216
a(F0.004900000000000001
F0.09980000000000001
tp217
a(F0.0059
F0.10480000000000002
tp218
a(F0.006900000000000001
F0.0798
tp219
a(F0.0069
F0.0898
tp220
a(F0.0079
F0.10480000000000002
tp221
a(F0.0049
F0.10480000000000002
tp222
a(F0.0069
F0.0848
tp223
assI3
(dp224
g2
g3
(g4
(I0
tp225
g6
tp226
Rp227
(I1
(L13L
tp228
g13
I00
S'\x98\x8f^<\xeb\x0ba@\x97Sb\xd3\xb1Ln@$\x0ci\x11x\xd9y@\x0e\xbcv\xac\xac\xa3\x82@kY-\xd6\x0c\xf0\x8a@W\xd6\xd6P\xc9\xc2\x91@\xf7,*[/\xef\x94@X\xa3HF\x89\x9d\x98@o\x08`\xf6\xdb/\x9b@w\x8drjd\xe4\x9b@.g[\xd9\xb9\x02\x9b@\xa1\xc9_\xd73\x7f\x99@\xff\x99\xb9\x00\xb8\x87\x96@'
p229
tp230
bsg18
(lp231
g20
(g13
S"x'\x00\xb5\x11\xc3y?"
p232
tp233
Rp234
ag20
(g13
S'\xe1"\xbaSg\xdc\xb4?'
p235
tp236
Rp237
asg27
I63
sg28
(F0.0043
F0.13150000000000003
g20
(g13
S'\xb6\x7fnQ\x7f\xff\xd2@'
p238
tp239
Rp240
tp241
sg33
g20
(g13
S'0\xd0#7\xce~\xee?'
p242
tp243
Rp244
sg37
(lp245
(F0.0063
F0.08650000000000001
tp246
a(F0.0033
F0.13150000000000003
tp247
a(F0.0073
F0.08149999999999999
tp248
a(F0.0083
F0.08650000000000001
tp249
a(F0.0073
F0.10650000000000001
tp250
a(F0.0063
F0.08149999999999999
tp251
a(F0.0043
F0.11150000000000002
tp252
a(F0.0043
F0.13650000000000004
tp253
a(F0.0073
F0.0915
tp254
a(F0.0063
F0.0915
tp255
a(F0.0063
F0.0865
tp256
a(F0.0063
F0.11650000000000002
tp257
a(F0.0083
F0.08149999999999999
tp258
a(F0.0063
F0.12150000000000002
tp259
a(F0.0053
F0.13650000000000004
tp260
a(F0.0033
F0.12650000000000003
tp261
a(F0.0053
F0.11150000000000002
tp262
a(F0.0073
F0.0815
tp263
a(F0.0073
F0.1015
tp264
a(F0.0063
F0.1015
tp265
a(F0.0083
F0.0865
tp266
a(F0.0053
F0.0815
tp267
a(F0.0053
F0.11650000000000002
tp268
a(F0.0063
F0.0815
tp269
a(F0.0053
F0.12150000000000002
tp270
a(F0.0053
F0.1015
tp271
a(F0.0073
F0.11150000000000002
tp272
a(F0.0083
F0.0765
tp273
a(F0.0073
F0.09650000000000002
tp274
a(F0.0073
F0.08650000000000001
tp275
a(F0.0093
F0.08650000000000001
tp276
a(F0.0083
F0.0965
tp277
a(F0.0073
F0.11650000000000002
tp278
a(F0.0083
F0.1015
tp279
a(F0.0043
F0.12650000000000003
tp280
a(F0.0043
F0.11650000000000002
tp281
a(F0.0073
F0.0965
tp282
a(F0.0063
F0.0965
tp283
a(F0.0033
F0.13650000000000004
tp284
a(F0.0063
F0.11150000000000002
tp285
a(F0.0043
F0.13150000000000003
tp286
a(F0.0053
F0.13150000000000003
tp287
a(F0.0063
F0.09650000000000002
tp288
a(F0.0063
F0.0765
tp289
a(F0.0063
F0.12650000000000003
tp290
a(F0.0063
F0.09150000000000001
tp291
a(F0.0073
F0.09150000000000001
tp292
a(F0.0083
F0.09650000000000002
tp293
a(F0.0073
F0.0765
tp294
a(F0.0093
F0.09150000000000001
tp295
a(F0.0053
F0.0865
tp296
a(F0.0043
F0.12150000000000002
tp297
a(F0.0053
F0.12650000000000003
tp298
a(F0.0053
F0.10650000000000001
tp299
a(F0.0083
F0.0815
tp300
a(F0.0083
F0.0915
tp301
a(F0.0083
F0.09150000000000001
tp302
a(F0.0053
F0.0765
tp303
a(F0.0093
F0.0815
tp304
a(F0.0053
F0.0965
tp305
a(F0.0063
F0.10650000000000001
tp306
a(F0.0073
F0.0865
tp307
a(F0.0033
F0.12150000000000002
tp308
assI4
(dp309
g2
g3
(g4
(I0
tp310
g6
tp311
Rp312
(I1
(L13L
tp313
g13
I00
S'\xb9&\xb9\x87\xdc\xec^@\xf79\xd7R\xaa\xe6o@Z\x10\x1b.\xca\xcby@\xa4\x83\x0e\x99\xcd(\x83@\xf9\x19\xaa\x13\xb1H\x8a@\x96%p\xc3\xc7"\x91@7\x88\xeb\xe3\x9d#\x95@0SQX\x1bq\x98@\xf8Z\xb3\xef\x8d\x95\x9a@\x84\x0e\xee\xdfUs\x9b@\xce\xecv\xdd\xfe\xbc\x9b@@\xee\xd3\x99\x8a\x90\x99@ \xb8\xce\x16\xacQ\x97@'
p314
tp315
bsg18
(lp316
g20
(g13
S'\x18[\xaf3\x92\xa2{?'
p317
tp318
Rp319
ag20
(g13
S'j{\xbb\xbe\xa7A\xb4?'
p320
tp321
Rp322
asg27
I69
sg28
(F0.0047
F0.12410000000000003
g20
(g13
S'\x99w\x9a\x8a\x15\x8c\xd3@'
p323
tp324
Rp325
tp326
sg33
g20
(g13
S'\x9cb\xa06\xb3o\xee?'
p327
tp328
Rp329
sg37
(lp330
(F0.0067
F0.11910000000000003
tp331
a(F0.0097
F0.08910000000000001
tp332
a(F0.0087
F0.08910000000000001
tp333
a(F0.0057
F0.12410000000000003
tp334
a(F0.0067
F0.11410000000000002
tp335
a(F0.0067
F0.10410000000000001
tp336
a(F0.0047
F0.10910000000000002
tp337
a(F0.0037
F0.11910000000000003
tp338
a(F0.0037
F0.12410000000000002
tp339
a(F0.0087
F0.0841
tp340
a(F0.0077
F0.0841
tp341
a(F0.0057
F0.11910000000000003
tp342
a(F0.0057
F0.13410000000000002
tp343
a(F0.0077
F0.11410000000000002
tp344
a(F0.0067
F0.0841
tp345
a(F0.0037
F0.13410000000000002
tp346
a(F0.0067
F0.08410000000000001
tp347
a(F0.0057
F0.12410000000000002
tp348
a(F0.0057
F0.10410000000000001
tp349
a(F0.0077
F0.0891
tp350
a(F0.0077
F0.07909999999999999
tp351
a(F0.0047
F0.12410000000000003
tp352
a(F0.0067
F0.0941
tp353
a(F0.0097
F0.0791
tp354
a(F0.0057
F0.10910000000000002
tp355
a(F0.0087
F0.0891
tp356
a(F0.0037
F0.11910000000000001
tp357
a(F0.0087
F0.0791
tp358
a(F0.0047
F0.11910000000000001
tp359
a(F0.0077
F0.08410000000000001
tp360
a(F0.0077
F0.09910000000000001
tp361
a(F0.0047
F0.11410000000000002
tp362
a(F0.0037
F0.12910000000000002
tp363
a(F0.0057
F0.0791
tp364
a(F0.0037
F0.12410000000000003
tp365
a(F0.0067
F0.0741
tp366
a(F0.0057
F0.12910000000000002
tp367
a(F0.0067
F0.12410000000000003
tp368
a(F0.0057
F0.0741
tp369
a(F0.0067
F0.07909999999999999
tp370
a(F0.0087
F0.07909999999999999
tp371
a(F0.0077
F0.0941
tp372
a(F0.007699999999999999
F0.08410000000000001
tp373
a(F0.0087
F0.0741
tp374
a(F0.0097
F0.08410000000000001
tp375
a(F0.0057
F0.11410000000000002
tp376
a(F0.0057
F0.11910000000000001
tp377
a(F0.0047
F0.12910000000000002
tp378
a(F0.0087
F0.09910000000000001
tp379
a(F0.0057
F0.0941
tp380
a(F0.0067
F0.0891
tp381
a(F0.0077
F0.0791
tp382
a(F0.0077
F0.10410000000000001
tp383
a(F0.007699999999999999
F0.0791
tp384
a(F0.0057
F0.09910000000000001
tp385
a(F0.0067
F0.10910000000000002
tp386
a(F0.0047
F0.13410000000000002
tp387
a(F0.007699999999999999
F0.08910000000000001
tp388
a(F0.0087
F0.08410000000000001
tp389
a(F0.0047
F0.11910000000000003
tp390
a(F0.0057
F0.0891
tp391
a(F0.0067
F0.0791
tp392
a(F0.0067
F0.09910000000000001
tp393
a(F0.0057
F0.0841
tp394
a(F0.0077
F0.10910000000000002
tp395
a(F0.0077
F0.0741
tp396
a(F0.0047
F0.10410000000000001
tp397
a(F0.0047
F0.12410000000000002
tp398
a(F0.0087
F0.0941
tp399
assI5
(dp400
g2
g3
(g4
(I0
tp401
g6
tp402
Rp403
(I1
(L13L
tp404
g13
I00
S'\x15\xf922l\\c@\xef\xa4\xd5eVGq@\x87\xbf\xa2\xb5\xef\xb3{@\x16d\x1c\x19\xa1\x8e\x84@\xd82\x1cI\xa4\x93\x8c@%\n\xb0^\x83\xef\x91@r\xef\x8b\x0b\xa5\x06\x96@\xd1\xa8\xc3\xd0\xe7\xc3\x98@\x93\xdb\x08\x9c~\x9d\x9a@$ai\xa0z\x8b\x9b@\xde\xee\x81\x02v\xa1\x9a@\xc7j\x10\xc7A\xe1\x98@\xb3\x01s|\xec\x14\x96@'
p405
tp406
bsg18
(lp407
g20
(g13
S'\xecnU==\xfaz?'
p408
tp409
Rp410
ag20
(g13
S'\xc9\xb5o\xf0\x9fB\xb4?'
p411
tp412
Rp413
asg27
I42
sg28
(F0.0056
F0.11910000000000003
g20
(g13
S'\x0040[\x02^\xd3@'
p414
tp415
Rp416
tp417
sg33
g20
(g13
S'RcE\x90\x16M\xee?'
p418
tp419
Rp420
sg37
(lp421
(F0.0066
F0.0941
tp422
a(F0.0076
F0.0741
tp423
a(F0.0056
F0.0941
tp424
a(F0.0056
F0.10910000000000002
tp425
a(F0.0086
F0.0891
tp426
a(F0.0056
F0.12410000000000003
tp427
a(F0.0076
F0.0891
tp428
a(F0.0056
F0.11910000000000003
tp429
a(F0.0066
F0.10410000000000001
tp430
a(F0.0066
F0.11910000000000003
tp431
a(F0.0076
F0.07909999999999999
tp432
a(F0.0046
F0.09910000000000001
tp433
a(F0.0066
F0.10910000000000002
tp434
a(F0.0056
F0.09910000000000001
tp435
a(F0.0086
F0.0841
tp436
a(F0.0046
F0.11410000000000002
tp437
a(F0.0066
F0.0791
tp438
a(F0.0056
F0.10410000000000001
tp439
a(F0.0056
F0.11410000000000002
tp440
a(F0.0046
F0.12410000000000003
tp441
a(F0.0076
F0.10410000000000001
tp442
a(F0.0066
F0.0891
tp443
a(F0.0046
F0.10410000000000001
tp444
a(F0.0056
F0.07909999999999999
tp445
a(F0.0076
F0.0791
tp446
a(F0.0046
F0.11910000000000003
tp447
a(F0.0086
F0.0941
tp448
a(F0.0066
F0.0741
tp449
a(F0.0076
F0.0941
tp450
a(F0.0066
F0.09910000000000001
tp451
a(F0.0086
F0.07909999999999999
tp452
a(F0.0046
F0.10910000000000002
tp453
a(F0.0066
F0.07909999999999999
tp454
a(F0.0066
F0.11410000000000002
tp455
a(F0.0056
F0.0791
tp456
a(F0.0056
F0.0841
tp457
a(F0.0066
F0.0841
tp458
a(F0.0076
F0.0841
tp459
a(F0.0056
F0.0741
tp460
a(F0.0066
F0.12410000000000003
tp461
a(F0.0076
F0.09910000000000001
tp462
a(F0.0056
F0.0891
tp463
assI6
(dp464
g2
g3
(g4
(I0
tp465
g6
tp466
Rp467
(I1
(L13L
tp468
g13
I00
S':\xa9\x16\xf7\xe0Mb@\xe4:\x08\x99\xdc\x12q@\x17+\x17,\x8e\x88z@IQ\x9df\xd1\x8d\x83@>\x8b,\x9b\x1c8\x8b@F\x05\xde\xf6\xaf\x05\x92@\xe8\xa1tp<\xf9\x94@Vm]0\xdb\x90\x98@D\x930c\xf3O\x9a@\x1e\x7f\xdac\x86(\x9b@\xf6c\x14\xf2V\xc0\x9a@6\xd6\xd8\xa8r\x1b\x9a@\x93~\x91,Eo\x97@'
p469
tp470
bsg18
(lp471
g20
(g13
S'\x12r\xdd\xf0\xdd\xea{?'
p472
tp473
Rp474
ag20
(g13
S'y\x8c%\xec\x18\xa0\xb4?'
p475
tp476
Rp477
asg27
I70
sg28
(F0.0048
F0.12060000000000001
g20
(g13
S'z6\x88\x15;\x07\xd4@'
p478
tp479
Rp480
tp481
sg33
g20
(g13
S'\xe4\xdf\xf3,\xd3}\xee?'
p482
tp483
Rp484
sg37
(lp485
(F0.0068
F0.0906
tp486
a(F0.0058
F0.0856
tp487
a(F0.0058
F0.10060000000000001
tp488
a(F0.0048
F0.1106
tp489
a(F0.0078
F0.0806
tp490
a(F0.0058
F0.0906
tp491
a(F0.0068
F0.0856
tp492
a(F0.0048
F0.13060000000000002
tp493
a(F0.0098
F0.08560000000000001
tp494
a(F0.0037999999999999996
F0.11560000000000001
tp495
a(F0.0048
F0.12560000000000002
tp496
a(F0.0068
F0.0956
tp497
a(F0.0068
F0.12060000000000001
tp498
a(F0.0078
F0.08059999999999999
tp499
a(F0.007799999999999999
F0.0806
tp500
a(F0.0078
F0.08560000000000001
tp501
a(F0.008799999999999999
F0.0806
tp502
a(F0.0037999999999999996
F0.12060000000000001
tp503
a(F0.0048
F0.11060000000000002
tp504
a(F0.008799999999999999
F0.08059999999999999
tp505
a(F0.0098
F0.0756
tp506
a(F0.0058
F0.12060000000000001
tp507
a(F0.0058
F0.0756
tp508
a(F0.0037999999999999996
F0.12560000000000002
tp509
a(F0.0068
F0.11060000000000002
tp510
a(F0.0058
F0.10560000000000001
tp511
a(F0.008799999999999999
F0.0956
tp512
a(F0.0037999999999999996
F0.11060000000000002
tp513
a(F0.0058
F0.12560000000000002
tp514
a(F0.0058
F0.0956
tp515
a(F0.008799999999999999
F0.10060000000000001
tp516
a(F0.0068
F0.11560000000000002
tp517
a(F0.0068
F0.10060000000000001
tp518
a(F0.0068
F0.08560000000000001
tp519
a(F0.0048
F0.12060000000000001
tp520
a(F0.0058
F0.11560000000000002
tp521
a(F0.0098
F0.0806
tp522
a(F0.0078
F0.11060000000000002
tp523
a(F0.0078
F0.0906
tp524
a(F0.0048
F0.11560000000000002
tp525
a(F0.0078
F0.10060000000000001
tp526
a(F0.0037999999999999996
F0.12060000000000003
tp527
a(F0.008799999999999999
F0.0756
tp528
a(F0.0068
F0.10560000000000001
tp529
a(F0.0068
F0.0756
tp530
a(F0.008799999999999999
F0.08560000000000001
tp531
a(F0.0068
F0.0806
tp532
a(F0.0037999999999999996
F0.11560000000000002
tp533
a(F0.0058
F0.13060000000000002
tp534
a(F0.0058
F0.0806
tp535
a(F0.0058
F0.11560000000000001
tp536
a(F0.007799999999999999
F0.08560000000000001
tp537
a(F0.0037999999999999996
F0.13060000000000002
tp538
a(F0.0048
F0.10060000000000001
tp539
a(F0.0078
F0.0756
tp540
a(F0.0068
F0.1106
tp541
a(F0.008799999999999999
F0.0856
tp542
a(F0.0068
F0.11560000000000001
tp543
a(F0.0078
F0.10560000000000001
tp544
a(F0.0078
F0.0856
tp545
a(F0.008799999999999999
F0.0906
tp546
a(F0.0078
F0.0956
tp547
a(F0.007799999999999999
F0.0756
tp548
a(F0.0058
F0.11060000000000002
tp549
a(F0.0048
F0.11560000000000001
tp550
a(F0.0068
F0.08059999999999999
tp551
a(F0.0048
F0.12060000000000003
tp552
a(F0.0058
F0.12060000000000003
tp553
a(F0.0058
F0.1106
tp554
a(F0.0048
F0.10560000000000001
tp555
assI7
(dp556
g2
g3
(g4
(I0
tp557
g6
tp558
Rp559
(I1
(L13L
tp560
g13
I00
S"\xc9I$\xf56\xe4`@\x18\x8b\xc4\xa7\xc6\x0fl@B\xcf\x83\xae\xdary@\xee\xd7\xf9\x02\xf4\x94\x82@\xe5\x8dT\x06\xd35\x8a@;\x98\xd8\xc2\xe6\x1a\x91@\xbb\xc1k \x03\xce\x94@.\xc2\xfe\x882y\x98@\x9fF\xd5T}Y\x9a@'\xd7\x11lX(\x9c@\x84\x18A\x14`e\x9b@\xad\x80l\xc40\xe4\x99@\x821_U]R\x97@"
p561
tp562
bsg18
(lp563
g20
(g13
S'\xd03l\xa8*\xadz?'
p564
tp565
Rp566
ag20
(g13
S'\xa1\xfe\xaa\x82pL\xb4?'
p567
tp568
Rp569
asg27
I68
sg28
(F0.0045
F0.12930000000000003
g20
(g13
S'_8d%\x82Y\xd3@'
p570
tp571
Rp572
tp573
sg33
g20
(g13
S'+\xf8\xb2Fwv\xee?'
p574
tp575
Rp576
sg37
(lp577
(F0.006500000000000001
F0.09430000000000001
tp578
a(F0.0055
F0.09430000000000001
tp579
a(F0.0045
F0.13930000000000003
tp580
a(F0.0065
F0.10930000000000002
tp581
a(F0.0065
F0.07429999999999999
tp582
a(F0.0055
F0.12430000000000002
tp583
a(F0.0065
F0.11930000000000003
tp584
a(F0.0055
F0.10930000000000002
tp585
a(F0.0034999999999999996
F0.12930000000000003
tp586
a(F0.0065
F0.0893
tp587
a(F0.0045
F0.10430000000000002
tp588
a(F0.009500000000000001
F0.0793
tp589
a(F0.0065
F0.11430000000000003
tp590
a(F0.0065
F0.0793
tp591
a(F0.0075
F0.0793
tp592
a(F0.0065
F0.12430000000000004
tp593
a(F0.0075
F0.10430000000000002
tp594
a(F0.0045
F0.12930000000000003
tp595
a(F0.0055
F0.12930000000000003
tp596
a(F0.0085
F0.09430000000000001
tp597
a(F0.0055
F0.13430000000000003
tp598
a(F0.0065
F0.0843
tp599
a(F0.0075
F0.11430000000000003
tp600
a(F0.0045
F0.12430000000000004
tp601
a(F0.009500000000000001
F0.0843
tp602
a(F0.0055
F0.0843
tp603
a(F0.0065
F0.09930000000000001
tp604
a(F0.0034999999999999996
F0.11930000000000003
tp605
a(F0.0034999999999999996
F0.12430000000000004
tp606
a(F0.0045
F0.12430000000000002
tp607
a(F0.0075
F0.0743
tp608
a(F0.0055
F0.12430000000000004
tp609
a(F0.0085
F0.0843
tp610
a(F0.0065
F0.09430000000000001
tp611
a(F0.0055
F0.11930000000000003
tp612
a(F0.0075
F0.09930000000000001
tp613
a(F0.007500000000000001
F0.0793
tp614
a(F0.0075
F0.09430000000000001
tp615
a(F0.0045
F0.11930000000000003
tp616
a(F0.0085
F0.0893
tp617
a(F0.0045
F0.13430000000000003
tp618
a(F0.0055
F0.0893
tp619
a(F0.0055
F0.0793
tp620
a(F0.0034999999999999996
F0.13430000000000003
tp621
a(F0.0055
F0.0743
tp622
a(F0.0075
F0.10930000000000002
tp623
a(F0.0075
F0.0893
tp624
a(F0.006500000000000001
F0.0843
tp625
a(F0.0034999999999999996
F0.12430000000000002
tp626
a(F0.0055
F0.10430000000000002
tp627
a(F0.0045
F0.11430000000000003
tp628
a(F0.009500000000000001
F0.0893
tp629
a(F0.0045
F0.10930000000000002
tp630
a(F0.006500000000000001
F0.0893
tp631
a(F0.0085
F0.07429999999999999
tp632
a(F0.007500000000000001
F0.09430000000000001
tp633
a(F0.0075
F0.11930000000000003
tp634
a(F0.0055
F0.13930000000000003
tp635
a(F0.007500000000000001
F0.0843
tp636
a(F0.0075
F0.07429999999999999
tp637
a(F0.0065
F0.10430000000000002
tp638
a(F0.0085
F0.0793
tp639
a(F0.0055
F0.11430000000000003
tp640
a(F0.0055
F0.09930000000000001
tp641
a(F0.0065
F0.0743
tp642
a(F0.0075
F0.0843
tp643
a(F0.007500000000000001
F0.0893
tp644
a(F0.0034999999999999996
F0.13930000000000003
tp645
assI8
(dp646
g2
g3
(g4
(I0
tp647
g6
tp648
Rp649
(I1
(L13L
tp650
g13
I00
S'\xeb?\x9b;gdd@\xb0\x8bu\xeam\xebq@4\xf5&q\x85A|@\xbd\x19gO\x84!\x84@:\x939lu\x91\x8c@I\xb7\xa1\x8f\x0e\x0c\x92@\xd5U\xe7\xfc\x10\x0e\x95@\x15\x82\xfc\x82\x1dz\x98@6g\x90\xc3\x1bX\x9a@\xf0N\xeaq\x9f\x8b\x9b@UgF2u\xf1\x9a@}\xec$\xb2)v\x99@\xde\xd8\xd7\xc9\xa5\xa2\x96@'
p651
tp652
bsg18
(lp653
g20
(g13
S'$f4\xa3|\x1dw?'
p654
tp655
Rp656
ag20
(g13
S'}\x81\xa4l\xfe\xa8\xb4?'
p657
tp658
Rp659
asg27
I50
sg28
(F0.0056
F0.11570000000000003
g20
(g13
S'k\x9c5\xd0\x0c\xea\xd3@'
p660
tp661
Rp662
tp663
sg33
g20
(g13
S"\x1e\x9fb*'g\xee?"
p664
tp665
Rp666
sg37
(lp667
(F0.0066
F0.10070000000000001
tp668
a(F0.0046
F0.12070000000000003
tp669
a(F0.0056
F0.12570000000000003
tp670
a(F0.0066
F0.0757
tp671
a(F0.0086
F0.09570000000000001
tp672
a(F0.0076
F0.09570000000000001
tp673
a(F0.0066
F0.11070000000000002
tp674
a(F0.0046
F0.11570000000000003
tp675
a(F0.0066
F0.0857
tp676
a(F0.0056
F0.0757
tp677
a(F0.0056
F0.07569999999999999
tp678
a(F0.0076
F0.0807
tp679
a(F0.0066
F0.07569999999999999
tp680
a(F0.0036
F0.12070000000000003
tp681
a(F0.0046
F0.10570000000000002
tp682
a(F0.0056
F0.0907
tp683
a(F0.0036
F0.12570000000000003
tp684
a(F0.0056
F0.10570000000000002
tp685
a(F0.0086
F0.0907
tp686
a(F0.0056
F0.10070000000000001
tp687
a(F0.0086
F0.10570000000000002
tp688
a(F0.0046
F0.12570000000000003
tp689
a(F0.0066
F0.0807
tp690
a(F0.0036
F0.11570000000000003
tp691
a(F0.0076
F0.0857
tp692
a(F0.0056
F0.13070000000000004
tp693
a(F0.0086
F0.0857
tp694
a(F0.0046
F0.13070000000000004
tp695
a(F0.0066
F0.12070000000000003
tp696
a(F0.0066
F0.09570000000000001
tp697
a(F0.0046
F0.0757
tp698
a(F0.0056
F0.11570000000000003
tp699
a(F0.0046
F0.11070000000000002
tp700
a(F0.0066
F0.11570000000000003
tp701
a(F0.0036
F0.13070000000000004
tp702
a(F0.0076
F0.07569999999999999
tp703
a(F0.0056
F0.09570000000000001
tp704
a(F0.0086
F0.10070000000000001
tp705
a(F0.0076
F0.10070000000000001
tp706
a(F0.0076
F0.11070000000000002
tp707
a(F0.0066
F0.10570000000000002
tp708
a(F0.0046
F0.0857
tp709
a(F0.0056
F0.12070000000000003
tp710
a(F0.0066
F0.0907
tp711
a(F0.0076
F0.0907
tp712
a(F0.0056
F0.0857
tp713
a(F0.0056
F0.0807
tp714
a(F0.0046
F0.0807
tp715
a(F0.0076
F0.10570000000000002
tp716
a(F0.0056
F0.11070000000000002
tp717
assI9
(dp718
g2
g3
(g4
(I0
tp719
g6
tp720
Rp721
(I1
(L13L
tp722
g13
I00
S'\xc4\x87 \x13A\x89d@\xb7\xa7\x06\xbb\x83\x90q@\xbe\xaf}/\xab\x15|@\x1c \xd6\x87\xbf\xdd\x83@^\xbaxN|\xfd\x8a@u\x012\xb5\xd1\x07\x91@\xa1l\x7f\x93#\xef\x94@\xf6\x98c\x16\xd7\t\x98@\xd0\xedT\x9d0\xc4\x99@\xcb\xf0\xa4\xe3U\xd1\x9a@\xe1\xca\x1e\xaf\xc8\xaf\x9b@\x89{\x0f\xf3\xdd0\x9a@\xc9.\x87\x06\x0c0\x98@'
p723
tp724
bsg18
(lp725
g20
(g13
S'Ps\xef+\x1fC~?'
p726
tp727
Rp728
ag20
(g13
S'0\x83\xa4j;\xc1\xb4?'
p729
tp730
Rp731
asg27
I54
sg28
(F0.0054
F0.11110000000000002
g20
(g13
S'\xfb\x0f\xf9\x9d\x7f\xba\xd4@'
p732
tp733
Rp734
tp735
sg33
g20
(g13
S'\x9c]>\xe8\x02<\xee?'
p736
tp737
Rp738
sg37
(lp739
(F0.0074
F0.10110000000000001
tp740
a(F0.0064
F0.0961
tp741
a(F0.008400000000000001
F0.08109999999999999
tp742
a(F0.0064
F0.12110000000000003
tp743
a(F0.0063999999999999994
F0.0911
tp744
a(F0.0084
F0.0911
tp745
a(F0.0044
F0.11610000000000002
tp746
a(F0.0064
F0.0861
tp747
a(F0.0054
F0.10110000000000001
tp748
a(F0.0073999999999999995
F0.0911
tp749
a(F0.0074
F0.0761
tp750
a(F0.009399999999999999
F0.0861
tp751
a(F0.0054
F0.12610000000000002
tp752
a(F0.0063999999999999994
F0.0961
tp753
a(F0.0074
F0.10610000000000001
tp754
a(F0.0063999999999999994
F0.0861
tp755
a(F0.0074
F0.0961
tp756
a(F0.0064
F0.11110000000000002
tp757
a(F0.0054
F0.11610000000000002
tp758
a(F0.0074
F0.08109999999999999
tp759
a(F0.0073999999999999995
F0.0861
tp760
a(F0.009399999999999999
F0.08109999999999999
tp761
a(F0.0084
F0.0961
tp762
a(F0.0064
F0.12610000000000002
tp763
a(F0.0064
F0.0761
tp764
a(F0.0064
F0.10110000000000001
tp765
a(F0.0084
F0.0761
tp766
a(F0.008400000000000001
F0.0911
tp767
a(F0.0054
F0.12110000000000003
tp768
a(F0.0044
F0.10610000000000001
tp769
a(F0.0054
F0.0911
tp770
a(F0.0073999999999999995
F0.08109999999999999
tp771
a(F0.0044
F0.12110000000000003
tp772
a(F0.0064
F0.0911
tp773
a(F0.009399999999999999
F0.0911
tp774
a(F0.0054
F0.10610000000000001
tp775
a(F0.008400000000000001
F0.0861
tp776
a(F0.0084
F0.0861
tp777
a(F0.0084
F0.08109999999999999
tp778
a(F0.0064
F0.08109999999999999
tp779
a(F0.0074
F0.0911
tp780
a(F0.0064
F0.11610000000000002
tp781
a(F0.0074
F0.0811
tp782
a(F0.0054
F0.11110000000000002
tp783
a(F0.008400000000000001
F0.0961
tp784
a(F0.0073999999999999995
F0.0961
tp785
a(F0.0044
F0.11110000000000002
tp786
a(F0.0074
F0.0861
tp787
a(F0.0044
F0.12610000000000002
tp788
a(F0.0064
F0.10610000000000001
tp789
a(F0.0054
F0.0961
tp790
a(F0.0084
F0.0811
tp791
a(F0.0074
F0.11110000000000002
tp792
a(F0.0064
F0.0811
tp793
ass.