(dp0
I0
(dp1
S'best_curve'
p2
cnumpy.core.multiarray
_reconstruct
p3
(cnumpy
ndarray
p4
(I0
tp5
S'b'
p6
tp7
Rp8
(I1
(L13L
tp9
cnumpy
dtype
p10
(S'f8'
p11
I0
I1
tp12
Rp13
(I3
S'<'
p14
NNNI-1
I-1
I0
tp15
bI00
S'\x0clY\t\xc8zf@\xf8\x9b[\xb1hhq@\x9eW\xead\x14@z@\xa1\xd8\x08 \xca\xf7\x82@\xe2\xbd\x04\xc5U\x13\x8b@\xca\x1e\xe8|lM\x91@\x9c\xbf(d$"\x95@\xa6\xb3z\x16\\\xae\x99@b\xe5\xea\xceJ\xc9\x9b@\xfb]$\xd4\x14y\x9c@\xf0\x01]:\r\xdb\x9a@A\x1aS\x06zq\x98@\xc2Z\xe2\xe3T\xcd\x94@'
p16
tp17
bsS'pq0'
p18
(lp19
cnumpy.core.multiarray
scalar
p20
(g13
S'\x94\xd0\x15\xc0\xe0u\x81?'
p21
tp22
Rp23
ag20
(g13
S'\x9e\xce\xf4U\xed\xa6\xb2?'
p24
tp25
Rp26
asS'steps'
p27
I39
sS'params'
p28
(F0.007500000000000001
F0.0829
g20
(g13
S'=\xbf\xfc\x03\xc8\xd2\xd2@'
p29
tp30
Rp31
tp32
sS'fitness'
p33
g20
(g13
S'\xcf?\x1f\x90\xc8<\xee?'
p34
tp35
Rp36
sS'path'
p37
(lp38
(F0.006500000000000001
F0.0779
tp39
a(F0.0075
F0.0779
tp40
a(F0.006500000000000001
F0.0879
tp41
a(F0.006500000000000001
F0.07790000000000001
tp42
a(F0.0075
F0.0729
tp43
a(F0.0085
F0.0779
tp44
a(F0.009500000000000001
F0.08290000000000002
tp45
a(F0.009500000000000001
F0.07790000000000001
tp46
a(F0.009500000000000001
F0.07289999999999999
tp47
a(F0.007500000000000001
F0.0829
tp48
a(F0.010499999999999999
F0.0729
tp49
a(F0.0095
F0.0729
tp50
a(F0.0085
F0.08790000000000002
tp51
a(F0.0085
F0.0679
tp52
a(F0.0075
F0.0679
tp53
a(F0.0085
F0.07790000000000001
tp54
a(F0.0085
F0.07289999999999999
tp55
a(F0.006500000000000001
F0.0829
tp56
a(F0.006500000000000001
F0.08290000000000002
tp57
a(F0.007500000000000001
F0.07790000000000001
tp58
a(F0.0085
F0.0729
tp59
a(F0.006500000000000001
F0.08790000000000002
tp60
a(F0.0095
F0.0779
tp61
a(F0.009500000000000001
F0.0829
tp62
a(F0.009500000000000001
F0.0779
tp63
a(F0.0095
F0.07790000000000001
tp64
a(F0.007500000000000001
F0.0879
tp65
a(F0.007500000000000001
F0.08790000000000002
tp66
a(F0.010499999999999999
F0.0679
tp67
a(F0.0085
F0.0829
tp68
a(F0.009500000000000001
F0.0729
tp69
a(F0.007500000000000001
F0.0779
tp70
a(F0.0095
F0.0679
tp71
a(F0.0085
F0.0879
tp72
a(F0.007500000000000001
F0.08290000000000002
tp73
a(F0.007500000000000001
F0.07289999999999999
tp74
a(F0.007500000000000001
F0.0729
tp75
a(F0.010499999999999999
F0.07790000000000001
tp76
a(F0.0085
F0.08290000000000002
tp77
assI1
(dp78
g2
g3
(g4
(I0
tp79
g6
tp80
Rp81
(I1
(L13L
tp82
g13
I00
S'\xf8\x84\xed\xfc\x02\xbfd@\x85UWu\x9f\x15r@\x92\x93\xb1\xe3\xbeRy@\xf0n`DP\xa3\x82@\x90\x99q\x8d\xa7T\x8a@\x03\xa0\xcd\xd4F\xcb\x90@\x08\xeb\xad\xfa\xcf\xe6\x94@\x0c3\xae\xcbd\x81\x98@\xfb\xdbMv]\xde\x9a@7\xa3\xe20\x7f{\x9c@\x14&(\x14\xfb\xa2\x9b@4\x0c\x1c\x81\xd4i\x99@\xf4\xb6`\x15\xe5=\x96@'
p83
tp84
bsg18
(lp85
g20
(g13
S'\xbc(\xc5\x8eU\xb0\x82?'
p86
tp87
Rp88
ag20
(g13
S'U\x01\x9c\xa6\x8c\x1e\xb2?'
p89
tp90
Rp91
asg27
I22
sg28
(F0.0070999999999999995
F0.08080000000000001
g20
(g13
S'\xa7\xd5\xf1\xe6\x17o\xd3@'
p92
tp93
Rp94
tp95
sg33
g20
(g13
S'\x80,S>\x96F\xee?'
p96
tp97
Rp98
sg37
(lp99
(F0.0060999999999999995
F0.08080000000000001
tp100
a(F0.0070999999999999995
F0.0708
tp101
a(F0.0070999999999999995
F0.08580000000000002
tp102
a(F0.0070999999999999995
F0.0758
tp103
a(F0.010100000000000001
F0.0758
tp104
a(F0.0101
F0.0708
tp105
a(F0.0081
F0.0658
tp106
a(F0.0060999999999999995
F0.08580000000000002
tp107
a(F0.0060999999999999995
F0.0758
tp108
a(F0.0091
F0.0708
tp109
a(F0.0081
F0.0758
tp110
a(F0.0101
F0.0658
tp111
a(F0.0091
F0.0758
tp112
a(F0.0081
F0.0708
tp113
a(F0.0070999999999999995
F0.08080000000000001
tp114
a(F0.0081
F0.08080000000000001
tp115
a(F0.010100000000000001
F0.08080000000000001
tp116
a(F0.0091
F0.0658
tp117
a(F0.0091
F0.08080000000000001
tp118
a(F0.010100000000000001
F0.0708
tp119
a(F0.0081
F0.08580000000000002
tp120
a(F0.0101
F0.0758
tp121
assI2
(dp122
g2
g3
(g4
(I0
tp123
g6
tp124
Rp125
(I1
(L13L
tp126
g13
I00
S'\xdd\x08\x88\x1c\xcePi@\x80\xdbD*\x1e\xe9s@\x8fC\x90\xce0j{@c\x84\xe8\xc3:m\x83@\xb39\x80\xf8\xc6\xd7\x8a@rN\x07\xde#\x1d\x91@Y\xcde\xda\x80\xe2\x94@\x82%\x08\xfa\xda]\x98@\x91x\xc1\x0f\x17\x10\x9b@kj\xe2\xbfy\t\x9c@\xdf9a\x17\xb0W\x9b@\xfd \rW\x1b?\x99@\x00\xc9KV\xaaC\x96@'
p127
tp128
bsg18
(lp129
g20
(g13
S'\xb8Nn\x0cC\xe8\x82?'
p130
tp131
Rp132
ag20
(g13
S'B>\x18\xac \x98\xb2?'
p133
tp134
Rp135
asg27
I20
sg28
(F0.0082
F0.0776
g20
(g13
S'\xa1\x7f\xc1\xf7\xee\xa3\xd3@'
p136
tp137
Rp138
tp139
sg33
g20
(g13
S'\xe1og\xa0U\x1e\xee?'
p140
tp141
Rp142
sg37
(lp143
(F0.0092
F0.0776
tp144
a(F0.0082
F0.0776
tp145
a(F0.007200000000000001
F0.0776
tp146
a(F0.006200000000000001
F0.0776
tp147
a(F0.007200000000000001
F0.08760000000000001
tp148
a(F0.0102
F0.0776
tp149
a(F0.0092
F0.0826
tp150
a(F0.0092
F0.0676
tp151
a(F0.0082
F0.08760000000000001
tp152
a(F0.006200000000000001
F0.0826
tp153
a(F0.006200000000000001
F0.08760000000000001
tp154
a(F0.0102
F0.0726
tp155
a(F0.007200000000000001
F0.0726
tp156
a(F0.0092
F0.0726
tp157
a(F0.0082
F0.0826
tp158
a(F0.007200000000000001
F0.0826
tp159
a(F0.0102
F0.0676
tp160
a(F0.0082
F0.0726
tp161
a(F0.007200000000000001
F0.0676
tp162
a(F0.0082
F0.0676
tp163
assI3
(dp164
g2
g3
(g4
(I0
tp165
g6
tp166
Rp167
(I1
(L13L
tp168
g13
I00
S'N5T\x0f\x12\x9fg@o\x07;S\xe8\xedq@\xbe<\x00\xbf\xf8rz@\xe1$y\xd4;7\x82@\xd8?\x06v\n\xf3\x89@\xdem\xc4\xf6\xaa\x04\x91@\x07\x0f\x1bkG<\x95@"h\xd9\xf7\x9b|\x98@\x1ad \x06c&\x9b@\xd0;M\x84\xd1\x9c\x9c@\x81;\xe5\xb3\xe0\xa7\x9b@B\xe4\x11\xd3\x85\x1c\x99@x,Y\xec\x9a\x85\x95@'
p169
tp170
bsg18
(lp171
g20
(g13
S'\x8b\x84\xb2/\xc0\x10\x83?'
p172
tp173
Rp174
ag20
(g13
S"\x90\xe2\xd6K'\x90\xb2?"
p175
tp176
Rp177
asg27
I27
sg28
(F0.0073
F0.0825
g20
(g13
S'\xb78=`i\x0b\xd3@'
p178
tp179
Rp180
tp181
sg33
g20
(g13
S'[XN\x8e\xa6\x1f\xee?'
p182
tp183
Rp184
sg37
(lp185
(F0.0053
F0.0825
tp186
a(F0.0103
F0.0675
tp187
a(F0.0063
F0.0775
tp188
a(F0.0053
F0.08750000000000001
tp189
a(F0.0063
F0.09250000000000001
tp190
a(F0.0093
F0.0825
tp191
a(F0.0083
F0.08750000000000001
tp192
a(F0.0073
F0.0825
tp193
a(F0.0073
F0.06749999999999999
tp194
a(F0.0073
F0.09250000000000001
tp195
a(F0.0093
F0.0775
tp196
a(F0.0093
F0.06749999999999999
tp197
a(F0.0103
F0.0775
tp198
a(F0.0063
F0.08750000000000001
tp199
a(F0.0083
F0.06749999999999999
tp200
a(F0.0053
F0.09250000000000001
tp201
a(F0.0083
F0.0825
tp202
a(F0.0073
F0.0725
tp203
a(F0.0063
F0.0825
tp204
a(F0.0083
F0.0775
tp205
a(F0.0083
F0.0675
tp206
a(F0.0083
F0.0725
tp207
a(F0.0073
F0.0775
tp208
a(F0.0103
F0.0725
tp209
a(F0.0073
F0.08750000000000001
tp210
a(F0.0093
F0.0675
tp211
a(F0.0093
F0.0725
tp212
assI4
(dp213
g2
g3
(g4
(I0
tp214
g6
tp215
Rp216
(I1
(L13L
tp217
g13
I00
S'\x06\xd1\xc5Z\xe8\x92i@\xc8\xc1}x\x92zs@\xcd*pg\x01Z{@d\x9f\r\n\x91`\x83@\xb2"\x10\xc1\xab\xd0\x89@x#\x91\xe9\x0b\xbe\x90@\xab\xb6\r\xfe\x91\x94\x94@\x82aw\x0e\xf9|\x98@\x0f\xc8<\xf7\x87\xae\x9a@\x1d\\\xe2\xc8\x18\xe0\x9b@?\xc1\x9a\xaa\xc7\xcb\x9b@\x97g?K\xf9\xa3\x99@"\xff0\xa6_\xaf\x96@'
p218
tp219
bsg18
(lp220
g20
(g13
S'I\xe4\xbeAHQ\x81?'
p221
tp222
Rp223
ag20
(g13
S'i\xd2\xbc\xbb~\xa0\xb2?'
p224
tp225
Rp226
asg27
I35
sg28
(F0.007500000000000001
F0.0778
g20
(g13
S'I<\xed\x917\xd7\xd3@'
p227
tp228
Rp229
tp230
sg33
g20
(g13
S'\xa8\x1c\xd6"\x02\x1f\xee?'
p231
tp232
Rp233
sg37
(lp234
(F0.0065
F0.07279999999999999
tp235
a(F0.0065
F0.0828
tp236
a(F0.009500000000000001
F0.0828
tp237
a(F0.0075
F0.0678
tp238
a(F0.0095
F0.0778
tp239
a(F0.0085
F0.0778
tp240
a(F0.0085
F0.07780000000000001
tp241
a(F0.006500000000000001
F0.0878
tp242
a(F0.0065
F0.0878
tp243
a(F0.0085
F0.0678
tp244
a(F0.007500000000000001
F0.0778
tp245
a(F0.010499999999999999
F0.0728
tp246
a(F0.0065
F0.0778
tp247
a(F0.007500000000000001
F0.0878
tp248
a(F0.0095
F0.0678
tp249
a(F0.006500000000000001
F0.0778
tp250
a(F0.009500000000000001
F0.0878
tp251
a(F0.0085
F0.07279999999999999
tp252
a(F0.007500000000000001
F0.07279999999999999
tp253
a(F0.009500000000000001
F0.0778
tp254
a(F0.0075
F0.0728
tp255
a(F0.0085
F0.0728
tp256
a(F0.0095
F0.0728
tp257
a(F0.0075
F0.0828
tp258
a(F0.006500000000000001
F0.0828
tp259
a(F0.0075
F0.0878
tp260
a(F0.007500000000000001
F0.0828
tp261
a(F0.0075
F0.07279999999999999
tp262
a(F0.010499999999999999
F0.0678
tp263
a(F0.0075
F0.0778
tp264
a(F0.006500000000000001
F0.07279999999999999
tp265
a(F0.0085
F0.0828
tp266
a(F0.0095
F0.07780000000000001
tp267
a(F0.0085
F0.0878
tp268
a(F0.010499999999999999
F0.07780000000000001
tp269
assI5
(dp270
g2
g3
(g4
(I0
tp271
g6
tp272
Rp273
(I1
(L13L
tp274
g13
I00
S'.\x01\xbcs\xe7\xe0a@\xe1,y+\x07*n@\xed\xc3QA}\xf6w@\t\xad\x0f}\xa3I\x81@\xfeA\x02_\x06"\x89@P\xe7\x11\x19\xcd\xe0\x90@z\x0c\x8b\x81\xf7\x7f\x95@`\x86\xf81\xd9\x93\x99@)\x1e\x01\xd6\x1f\x08\x9c@6\xe1\xef\x17\xef\x82\x9c@\xc2\xb4.\xa3\xff\xb7\x9b@\xf4\xc0\x9ev\xbc\x99\x98@*\xfd\xca\xda\x9c\x80\x94@'
p275
tp276
bsg18
(lp277
g20
(g13
S'\x00+t\x91 \xe4\x80?'
p278
tp279
Rp280
ag20
(g13
S'\x1e\x01\x9d\x88\xdd\xc4\xb1?'
p281
tp282
Rp283
asg27
I39
sg28
(F0.006199999999999999
F0.08940000000000001
g20
(g13
S'\xcb\xb1\xe5o>H\xd2@'
p284
tp285
Rp286
tp287
sg33
g20
(g13
S'\xbe\x884\xdc\x9b4\xee?'
p288
tp289
Rp290
sg37
(lp291
(F0.007199999999999999
F0.09440000000000001
tp292
a(F0.006199999999999999
F0.0794
tp293
a(F0.0102
F0.0794
tp294
a(F0.007199999999999999
F0.08940000000000001
tp295
a(F0.0102
F0.0744
tp296
a(F0.0092
F0.0844
tp297
a(F0.007200000000000001
F0.06939999999999999
tp298
a(F0.0102
F0.06939999999999999
tp299
a(F0.005199999999999999
F0.0844
tp300
a(F0.005199999999999999
F0.08940000000000001
tp301
a(F0.0072
F0.0644
tp302
a(F0.0082
F0.0644
tp303
a(F0.007199999999999999
F0.0794
tp304
a(F0.006199999999999999
F0.08940000000000001
tp305
a(F0.0072
F0.0744
tp306
a(F0.006199999999999999
F0.0844
tp307
a(F0.008199999999999999
F0.06939999999999999
tp308
a(F0.008199999999999999
F0.0844
tp309
a(F0.005199999999999999
F0.09440000000000001
tp310
a(F0.0092
F0.0694
tp311
a(F0.0082
F0.06939999999999999
tp312
a(F0.008199999999999999
F0.0744
tp313
a(F0.007199999999999999
F0.0744
tp314
a(F0.0072
F0.0694
tp315
a(F0.0082
F0.0794
tp316
a(F0.0082
F0.0744
tp317
a(F0.006199999999999999
F0.0744
tp318
a(F0.006199999999999999
F0.09440000000000001
tp319
a(F0.0092
F0.0794
tp320
a(F0.0092
F0.0644
tp321
a(F0.007200000000000001
F0.0744
tp322
a(F0.0092
F0.06939999999999999
tp323
a(F0.008199999999999999
F0.08940000000000001
tp324
a(F0.007200000000000001
F0.0794
tp325
a(F0.008199999999999999
F0.0794
tp326
a(F0.007199999999999999
F0.0844
tp327
a(F0.0082
F0.0694
tp328
a(F0.0092
F0.0744
tp329
a(F0.007199999999999999
F0.06939999999999999
tp330
assI6
(dp331
g2
g3
(g4
(I0
tp332
g6
tp333
Rp334
(I1
(L13L
tp335
g13
I00
S'\tt*c[\xa5g@=\xb8bS\xe2\x92r@\xccD\xae\xe4A?|@\x04\xb1\x95\\5y\x83@\xf9MR\xb6\xf4\xbe\x8b@\x0ez\xd9p3\xc2\x91@\xf0\r\x0e\xf7n\xcf\x95@\xb2\xa9\xacgY\x18\x99@\x14\xb6S|~\x9e\x9b@E+\xa7\xc9\xc6\xc9\x9b@c\xcar\xfa\xe9\x03\x9b@\x1b&\xcd\xabN]\x98@\x9e\x0e2\xaa<\xc3\x94@'
p336
tp337
bsg18
(lp338
g20
(g13
S'!\x8c\xfcI\xebc\x82?'
p339
tp340
Rp341
ag20
(g13
S'Wi\x7f\xeb\xe2\x8f\xb2?'
p342
tp343
Rp344
asg27
I24
sg28
(F0.008
F0.0825
g20
(g13
S'S\xc5\xb4\xda\xa0\xde\xd2@'
p345
tp346
Rp347
tp348
sg33
g20
(g13
S'@\x06\x1b\x11\x96\x1b\xee?'
p349
tp350
Rp351
sg37
(lp352
(F0.009000000000000001
F0.08750000000000001
tp353
a(F0.007
F0.0825
tp354
a(F0.009999999999999998
F0.0775
tp355
a(F0.007
F0.08750000000000001
tp356
a(F0.007
F0.0725
tp357
a(F0.009
F0.0675
tp358
a(F0.009000000000000001
F0.0725
tp359
a(F0.009
F0.0775
tp360
a(F0.01
F0.0775
tp361
a(F0.01
F0.0675
tp362
a(F0.009999999999999998
F0.06749999999999999
tp363
a(F0.008
F0.08750000000000001
tp364
a(F0.009000000000000001
F0.0775
tp365
a(F0.008
F0.0725
tp366
a(F0.008
F0.0675
tp367
a(F0.007
F0.0775
tp368
a(F0.009
F0.06749999999999999
tp369
a(F0.009000000000000001
F0.0825
tp370
a(F0.008
F0.0825
tp371
a(F0.008
F0.06749999999999999
tp372
a(F0.009999999999999998
F0.0725
tp373
a(F0.009
F0.0725
tp374
a(F0.01
F0.0725
tp375
a(F0.008
F0.0775
tp376
assI7
(dp377
g2
g3
(g4
(I0
tp378
g6
tp379
Rp380
(I1
(L13L
tp381
g13
I00
S"1e8[x[f@\x9f\xb3\n\xa4\xcd\xcfq@\xedu\xd3`\xe5\xbdy@v\xe8\x9c\xc4\x95\xdc\x82@\xafUqZW\x1e\x8a@\x05\x0b\xdb\x1a\t\x7f\x90@()\x00\xb7\xe2\xa7\x94@\xbe{\xecV\x0f\xd7\x98@\xdb'Y\x86\x18>\x9b@\xb2w+\x0b\xfeQ\x9c@+\t\xb0Dr\xa6\x9b@\x0e\x93\xc3\xdd\xa3M\x99@\xdf%b\xf6\xce\x1d\x96@"
p382
tp383
bsg18
(lp384
g20
(g13
S'0\xf1>\x8ax\x9f\x82?'
p385
tp386
Rp387
ag20
(g13
S';b\x15\x83\xf3:\xb2?'
p388
tp389
Rp390
asg27
I23
sg28
(F0.0070999999999999995
F0.08120000000000001
g20
(g13
S'U\xcb\xacG\xd7L\xd3@'
p391
tp392
Rp393
tp394
sg33
g20
(g13
S'}g \xaeZ:\xee?'
p395
tp396
Rp397
sg37
(lp398
(F0.0091
F0.0762
tp399
a(F0.0091
F0.08120000000000001
tp400
a(F0.0070999999999999995
F0.0712
tp401
a(F0.0060999999999999995
F0.08620000000000001
tp402
a(F0.0081
F0.08120000000000001
tp403
a(F0.010100000000000001
F0.0762
tp404
a(F0.0070999999999999995
F0.0762
tp405
a(F0.0091
F0.0712
tp406
a(F0.0070999999999999995
F0.08120000000000001
tp407
a(F0.0060999999999999995
F0.0762
tp408
a(F0.0081
F0.0662
tp409
a(F0.0091
F0.08620000000000001
tp410
a(F0.0081
F0.08620000000000001
tp411
a(F0.0101
F0.0662
tp412
a(F0.0060999999999999995
F0.08120000000000001
tp413
a(F0.0081
F0.0762
tp414
a(F0.010100000000000001
F0.0712
tp415
a(F0.0101
F0.0762
tp416
a(F0.010100000000000001
F0.0662
tp417
a(F0.0091
F0.0662
tp418
a(F0.0081
F0.0712
tp419
a(F0.0070999999999999995
F0.08620000000000001
tp420
a(F0.0101
F0.0712
tp421
assI8
(dp422
g2
g3
(g4
(I0
tp423
g6
tp424
Rp425
(I1
(L13L
tp426
g13
I00
S'\xb4\xc1\x13\xc6X\xd4h@\xd4\xf4\x06\xa6\xeb|s@\x97\xc7\x14\xf5\x02\xb2{@#<\xc0,\\\xbb\x83@^\x98\xaa\xedM\xc6\x8b@\xf4\xdc\x80\x8aN\xad\x91@o\x92\xa1\x8a\xff\x91\x95@\xfdj\xa0\xa0x\xf7\x99@gln\x93\x1b\x0e\x9b@\xca\xd6\x050T\xcd\x9b@\xb3G\xf9&\x92\xf3\x9a@\xaa\xf4EvqP\x98@\x99\xc95\xdf\\\xfb\x94@'
p427
tp428
bsg18
(lp429
g20
(g13
S'\xec\xf4\x8e\xfe)\xf0\x82?'
p430
tp431
Rp432
ag20
(g13
S'\x97\x87\x94\xfb\xbc/\xb2?'
p433
tp434
Rp435
asg27
I28
sg28
(F0.008199999999999999
F0.081
g20
(g13
S'\x0e\xe3J\x1d\x17\x0e\xd3@'
p436
tp437
Rp438
tp439
sg33
g20
(g13
S'\x08\xa11\x933S\xee?'
p440
tp441
Rp442
sg37
(lp443
(F0.006200000000000001
F0.08600000000000001
tp444
a(F0.0102
F0.081
tp445
a(F0.0102
F0.066
tp446
a(F0.0102
F0.076
tp447
a(F0.007199999999999999
F0.076
tp448
a(F0.0092
F0.066
tp449
a(F0.006200000000000001
F0.076
tp450
a(F0.0082
F0.071
tp451
a(F0.007200000000000001
F0.071
tp452
a(F0.008199999999999999
F0.081
tp453
a(F0.007199999999999999
F0.08600000000000001
tp454
a(F0.0092
F0.071
tp455
a(F0.0102
F0.071
tp456
a(F0.008199999999999999
F0.071
tp457
a(F0.008199999999999999
F0.076
tp458
a(F0.007199999999999999
F0.081
tp459
a(F0.0092
F0.076
tp460
a(F0.0082
F0.076
tp461
a(F0.0082
F0.081
tp462
a(F0.008199999999999999
F0.08600000000000001
tp463
a(F0.006200000000000001
F0.081
tp464
a(F0.0092
F0.08600000000000001
tp465
a(F0.007200000000000001
F0.081
tp466
a(F0.007200000000000001
F0.08600000000000001
tp467
a(F0.0082
F0.08600000000000001
tp468
a(F0.0082
F0.066
tp469
a(F0.0092
F0.081
tp470
a(F0.007200000000000001
F0.076
tp471
assI9
(dp472
g2
g3
(g4
(I0
tp473
g6
tp474
Rp475
(I1
(L13L
tp476
g13
I00
S'\xadQR\x8eI\x9dh@\xfe\xfd\xff\\H\xd5q@_\xf8\x89L\xc2\xf0z@\xd4*\x19\x9f\x0e\xbc\x83@Q.\xc1K\xdbj\x8a@;\xac6#0u\x91@\xbc\x1a#\xa3{l\x95@ \x86\xd1\xb8\xff\xd5\x98@\xe4\n\xc9(\xec2\x9b@L\xe1\xbb\x11\xef\xe4\x9b@^\x89\xdd\xe3\xc8n\x9b@\xe8\x06a\x93q\xf9\x98@4~hn\x8bh\x95@'
p477
tp478
bsg18
(lp479
g20
(g13
S'\x17\xedw\xf6x\x8d\x81?'
p480
tp481
Rp482
ag20
(g13
S'\x02G\xfe-\xc5\x1d\xb2?'
p483
tp484
Rp485
asg27
I25
sg28
(F0.0076
F0.08080000000000001
g20
(g13
S'\xcfO0w\xe1:\xd3@'
p486
tp487
Rp488
tp489
sg33
g20
(g13
S"\x07\xd7\x0c\x97S'\xee?"
p490
tp491
Rp492
sg37
(lp493
(F0.009600000000000001
F0.08080000000000001
tp494
a(F0.0096
F0.0758
tp495
a(F0.0066
F0.0708
tp496
a(F0.0076
F0.08580000000000002
tp497
a(F0.0086
F0.0758
tp498
a(F0.0096
F0.0708
tp499
a(F0.0066
F0.08080000000000001
tp500
a(F0.0076
F0.08080000000000001
tp501
a(F0.009600000000000001
F0.0758
tp502
a(F0.0086
F0.08580000000000002
tp503
a(F0.009600000000000001
F0.0708
tp504
a(F0.0086
F0.0708
tp505
a(F0.0066
F0.08580000000000002
tp506
a(F0.0076
F0.0708
tp507
a(F0.0056
F0.09080000000000002
tp508
a(F0.0056
F0.08580000000000002
tp509
a(F0.0096
F0.0658
tp510
a(F0.0066
F0.09080000000000002
tp511
a(F0.0076
F0.0758
tp512
a(F0.0056
F0.08080000000000001
tp513
a(F0.0086
F0.08080000000000001
tp514
a(F0.0086
F0.0658
tp515
a(F0.0066
F0.0758
tp516
a(F0.0076
F0.0658
tp517
a(F0.0076
F0.09080000000000002
tp518
ass.