(dp0
I0
(dp1
S'best_curve'
p2
cnumpy.core.multiarray
_reconstruct
p3
(cnumpy
ndarray
p4
(I0
tp5
S'b'
p6
tp7
Rp8
(I1
(L13L
tp9
cnumpy
dtype
p10
(S'f8'
p11
I0
I1
tp12
Rp13
(I3
S'<'
p14
NNNI-1
I-1
I0
tp15
bI00
S"K'\x9f\x02\xbc\xcdl@\x98s9\xbf \x93u@a}$b\x0b\xb3\x80@g?$e\tJ\x86@\xad\xde\xb8\xccL\x99\x8b@\x1eD\x95\xc9\xdd]\x90@\xae,\xc4j-l\x92@@(%\xcaV\xce\x93@\xea\x0c\x80\xecm\x0e\x95@\x1d\x9d\x8fzm\xf4\x94@\r\xe1\xdd\xb1e1\x95@g\t\x8e\xad\xd4T\x94@\x15\xd8\x8f\xf4\x16W\x93@"
p16
tp17
bsS'pq0'
p18
(lp19
cnumpy.core.multiarray
scalar
p20
(g13
S'\xd4\xd9^74\xe2{?'
p21
tp22
Rp23
ag20
(g13
S'0\x83;s\xa7\x8a\xb0?'
p24
tp25
Rp26
asS'steps'
p27
I46
sS'params'
p28
(F0.007799999999999999
F0.09460000000000002
g20
(g13
S'\xb0\xfa\x11\xae\xd2\xe3\xd5@'
p29
tp30
Rp31
tp32
sS'fitness'
p33
g20
(g13
S'Dq\x85.\xcf\x81\xed?'
p34
tp35
Rp36
sS'path'
p37
(lp38
(F0.006799999999999999
F0.09960000000000002
tp39
a(F0.0098
F0.08460000000000001
tp40
a(F0.0078
F0.05960000000000001
tp41
a(F0.008799999999999999
F0.0696
tp42
a(F0.0058
F0.0646
tp43
a(F0.006799999999999999
F0.0796
tp44
a(F0.0078
F0.0696
tp45
a(F0.008799999999999999
F0.08960000000000001
tp46
a(F0.008799999999999999
F0.09960000000000002
tp47
a(F0.007799999999999999
F0.0796
tp48
a(F0.0058
F0.0696
tp49
a(F0.007799999999999999
F0.0696
tp50
a(F0.0078
F0.0746
tp51
a(F0.008799999999999999
F0.0646
tp52
a(F0.007799999999999999
F0.09960000000000002
tp53
a(F0.0078
F0.0796
tp54
a(F0.008799999999999999
F0.0746
tp55
a(F0.007799999999999999
F0.08960000000000001
tp56
a(F0.006799999999999999
F0.08460000000000001
tp57
a(F0.008799999999999999
F0.05960000000000001
tp58
a(F0.0098
F0.0796
tp59
a(F0.008799999999999999
F0.06960000000000001
tp60
a(F0.0078
F0.06459999999999999
tp61
a(F0.0078
F0.06960000000000001
tp62
a(F0.0078
F0.0596
tp63
a(F0.0058
F0.0596
tp64
a(F0.0098
F0.0746
tp65
a(F0.0078
F0.0646
tp66
a(F0.008799999999999999
F0.06459999999999999
tp67
a(F0.007799999999999999
F0.09460000000000002
tp68
a(F0.007799999999999999
F0.08460000000000001
tp69
a(F0.0068
F0.06459999999999999
tp70
a(F0.006799999999999999
F0.08960000000000001
tp71
a(F0.006799999999999999
F0.09460000000000002
tp72
a(F0.0068
F0.0596
tp73
a(F0.0068
F0.0696
tp74
a(F0.008799999999999999
F0.0796
tp75
a(F0.008799999999999999
F0.08460000000000001
tp76
a(F0.0068
F0.05960000000000001
tp77
a(F0.008799999999999999
F0.09460000000000002
tp78
a(F0.0068
F0.06960000000000001
tp79
a(F0.0068
F0.0746
tp80
a(F0.0068
F0.0796
tp81
a(F0.007799999999999999
F0.0746
tp82
a(F0.0098
F0.0696
tp83
a(F0.0068
F0.0646
tp84
assI1
(dp85
g2
g3
(g4
(I0
tp86
g6
tp87
Rp88
(I1
(L13L
tp89
g13
I00
S'\xca\x07jxMsl@\xda\x00\xfb\x15I\xd0w@c_\x1c6\xabI\x81@\xb7W\xdf\x81K2\x86@\x14\x1e~\xa8\x0e\t\x8c@\xa8\x98\x96f\xba8\x90@\x19\tS_\xe9\xe4\x92@\x1b\xc4\xb3\x01\xb9-\x94@\x1d\xba\xdf\x93Y]\x94@\x98\x9a\x1b\x12\x8f\xf3\x94@_\x91k\xc0\x85\x1f\x95@U\xc8y\x9c\x92\x19\x94@\x9e\xedK\xf1\xe2g\x93@'
p90
tp91
bsg18
(lp92
g20
(g13
S'\x9eD\x1f\x94n\xf3~?'
p93
tp94
Rp95
ag20
(g13
S'\xdd\xf6\xab\xaf\x90y\xb1?'
p96
tp97
Rp98
asg27
I40
sg28
(F0.0076
F0.09330000000000002
g20
(g13
S'\xe0NA>m\\\xd6@'
p99
tp100
Rp101
tp102
sg33
g20
(g13
S'\x04p\x8a\xa5\xf5\xc5\xed?'
p103
tp104
Rp105
sg37
(lp106
(F0.0056
F0.09830000000000003
tp107
a(F0.0066
F0.0733
tp108
a(F0.0086
F0.08330000000000001
tp109
a(F0.0066
F0.09830000000000003
tp110
a(F0.009600000000000001
F0.07830000000000001
tp111
a(F0.009600000000000001
F0.0733
tp112
a(F0.0076
F0.0683
tp113
a(F0.0086
F0.0683
tp114
a(F0.0056
F0.10330000000000003
tp115
a(F0.0066
F0.10830000000000004
tp116
a(F0.0056
F0.10830000000000004
tp117
a(F0.0086
F0.08830000000000002
tp118
a(F0.0086
F0.0633
tp119
a(F0.010600000000000002
F0.0733
tp120
a(F0.009600000000000001
F0.0683
tp121
a(F0.0086
F0.07830000000000001
tp122
a(F0.0076
F0.10830000000000004
tp123
a(F0.0076
F0.08330000000000001
tp124
a(F0.0056
F0.09330000000000002
tp125
a(F0.009600000000000001
F0.08830000000000002
tp126
a(F0.0066
F0.0683
tp127
a(F0.0086
F0.09830000000000003
tp128
a(F0.0076
F0.09830000000000003
tp129
a(F0.0076
F0.0733
tp130
a(F0.0086
F0.0733
tp131
a(F0.0076
F0.10330000000000003
tp132
a(F0.009600000000000001
F0.08330000000000001
tp133
a(F0.009600000000000001
F0.09330000000000002
tp134
a(F0.0066
F0.07830000000000001
tp135
a(F0.0076
F0.08830000000000002
tp136
a(F0.0066
F0.09330000000000002
tp137
a(F0.010600000000000002
F0.07830000000000001
tp138
a(F0.0086
F0.09330000000000002
tp139
a(F0.0066
F0.0633
tp140
a(F0.0076
F0.09330000000000002
tp141
a(F0.0066
F0.08830000000000002
tp142
a(F0.0076
F0.07830000000000001
tp143
a(F0.0066
F0.10330000000000003
tp144
a(F0.0076
F0.0633
tp145
a(F0.010600000000000002
F0.0683
tp146
assI2
(dp147
g2
g3
(g4
(I0
tp148
g6
tp149
Rp150
(I1
(L13L
tp151
g13
I00
S'I\xafW"\xd5\xafk@\x1dO\xaa9\xa86u@\x9f\xfa\xa4\xb8\xeak\x80@O\xb1\t\xdfF\xd6\x85@\x01Xf\xe6\x17h\x8b@\xf0\xfd\x88\xefZ\xa3\x8f@\x95a\x00$:X\x92@\xb5\xaa\xfb,\x81\xa8\x93@\xd3\x13\x07t\xde\xa9\x94@L\xe5\xe3\x03\x0bV\x95@5\x10b\xab\x02_\x95@\x19\x7f\xc2\x96I\xc0\x94@)\xbc\xf88\xda\xb6\x93@'
p152
tp153
bsg18
(lp154
g20
(g13
S'\x06\xc9\xaa>ZXy?'
p155
tp156
Rp157
ag20
(g13
S'w\xf5\r\xdc.\xd3\xb0?'
p158
tp159
Rp160
asg27
I49
sg28
(F0.007199999999999999
F0.10070000000000003
g20
(g13
S'\xc4\xc2\x06\xeb\x9f\xe4\xd5@'
p161
tp162
Rp163
tp164
sg33
g20
(g13
S'\xc2d\x12\xbdO\x8e\xed?'
p165
tp166
Rp167
sg37
(lp168
(F0.006199999999999999
F0.10570000000000003
tp169
a(F0.0092
F0.0707
tp170
a(F0.0062
F0.0607
tp171
a(F0.008199999999999999
F0.09070000000000002
tp172
a(F0.0072
F0.0607
tp173
a(F0.0092
F0.09570000000000002
tp174
a(F0.006199999999999999
F0.09570000000000002
tp175
a(F0.0072
F0.0757
tp176
a(F0.0092
F0.0657
tp177
a(F0.008199999999999999
F0.08070000000000001
tp178
a(F0.0102
F0.09070000000000002
tp179
a(F0.0102
F0.0757
tp180
a(F0.006199999999999999
F0.09070000000000002
tp181
a(F0.0092
F0.09070000000000002
tp182
a(F0.008199999999999999
F0.10070000000000003
tp183
a(F0.007199999999999999
F0.10070000000000003
tp184
a(F0.0102
F0.0707
tp185
a(F0.008199999999999999
F0.08570000000000001
tp186
a(F0.007199999999999999
F0.0757
tp187
a(F0.007199999999999999
F0.08070000000000001
tp188
a(F0.0102
F0.0657
tp189
a(F0.007199999999999999
F0.0707
tp190
a(F0.0092
F0.10070000000000003
tp191
a(F0.006199999999999999
F0.08570000000000001
tp192
a(F0.008199999999999999
F0.0707
tp193
a(F0.008199999999999999
F0.0757
tp194
a(F0.0072
F0.0657
tp195
a(F0.008199999999999999
F0.0657
tp196
a(F0.0092
F0.0757
tp197
a(F0.0102
F0.08570000000000001
tp198
a(F0.0072
F0.0707
tp199
a(F0.008199999999999999
F0.09570000000000002
tp200
a(F0.007199999999999999
F0.09570000000000002
tp201
a(F0.0062
F0.0657
tp202
a(F0.0102
F0.08070000000000001
tp203
a(F0.0062
F0.0757
tp204
a(F0.0062
F0.0707
tp205
a(F0.006199999999999999
F0.10070000000000003
tp206
a(F0.0092
F0.08570000000000001
tp207
a(F0.007199999999999999
F0.09070000000000002
tp208
a(F0.007199999999999999
F0.10570000000000003
tp209
a(F0.0052
F0.0607
tp210
a(F0.0052
F0.0657
tp211
a(F0.0052
F0.0707
tp212
a(F0.007199999999999999
F0.08570000000000001
tp213
a(F0.0052
F0.0757
tp214
a(F0.0092
F0.08070000000000001
tp215
a(F0.007199999999999999
F0.0657
tp216
a(F0.008199999999999999
F0.10570000000000003
tp217
assI3
(dp218
g2
g3
(g4
(I0
tp219
g6
tp220
Rp221
(I1
(L13L
tp222
g13
I00
S'>\x07\x7fS-\xd5n@\x0chy\x9bH\x12x@Z\xc6\\S\xcd\x95\x80@\x0e\x88"W#\xfe\x85@\xd9?\xa6k\x14\xcd\x8a@\x0b\xffT\xdf\xd3{\x8f@\x1ff-~R8\x92@\xa5\x0b\x9e5\x15\xa1\x93@Q\xbe\xd9\xd8\xe3\xaf\x94@\x98\xf9\xbez\xd1\xd4\x94@\x92\xc6\x90\xf5\xb7/\x95@\xf5\x9a\x8d\xcflj\x95@Y\x16\xdf9\x05\xb4\x93@'
p223
tp224
bsg18
(lp225
g20
(g13
S'\xd8\xbe\xeb3\xfc/\x80?'
p226
tp227
Rp228
ag20
(g13
S'\x0b\xd0\x1f\xc7\xbe$\xb2?'
p229
tp230
Rp231
asg27
I34
sg28
(F0.0079
F0.0859
g20
(g13
S')\x91e1\xfd\x1d\xd7@'
p232
tp233
Rp234
tp235
sg33
g20
(g13
S'\x1e\x0eW\x03\xd4h\xed?'
p236
tp237
Rp238
sg37
(lp239
(F0.0089
F0.07590000000000001
tp240
a(F0.009899999999999999
F0.0859
tp241
a(F0.0079
F0.0659
tp242
a(F0.0079
F0.0809
tp243
a(F0.009899999999999999
F0.0809
tp244
a(F0.0089
F0.07089999999999999
tp245
a(F0.008900000000000002
F0.0859
tp246
a(F0.0069
F0.0659
tp247
a(F0.0079
F0.0859
tp248
a(F0.0089
F0.0759
tp249
a(F0.0089
F0.0659
tp250
a(F0.009900000000000003
F0.09090000000000001
tp251
a(F0.009899999999999999
F0.07089999999999999
tp252
a(F0.006900000000000001
F0.09090000000000001
tp253
a(F0.009900000000000003
F0.0809
tp254
a(F0.0079
F0.0759
tp255
a(F0.0069
F0.0759
tp256
a(F0.0089
F0.0809
tp257
a(F0.0089
F0.0859
tp258
a(F0.009899999999999999
F0.0759
tp259
a(F0.009899999999999999
F0.07590000000000001
tp260
a(F0.009899999999999999
F0.0709
tp261
a(F0.006900000000000001
F0.0859
tp262
a(F0.009900000000000003
F0.0859
tp263
a(F0.009899999999999999
F0.0659
tp264
a(F0.008900000000000002
F0.09090000000000001
tp265
a(F0.0069
F0.0709
tp266
a(F0.0079
F0.07089999999999999
tp267
a(F0.0089
F0.0709
tp268
a(F0.0079
F0.0709
tp269
a(F0.0079
F0.07590000000000001
tp270
a(F0.0079
F0.09090000000000001
tp271
a(F0.008900000000000002
F0.0809
tp272
a(F0.006900000000000001
F0.0809
tp273
assI4
(dp274
g2
g3
(g4
(I0
tp275
g6
tp276
Rp277
(I1
(L13L
tp278
g13
I00
S'Q\xe6\xd9\x80\xcc\x88f@?\xa0\x9d<B\xb6u@m\xaf\xeed`.\x80@8jd,\xaf\xfa\x85@g\x10\xc0&\x8b<\x8c@O\xb0g\x95\xaf\xd7\x90@\xe4\x938qwi\x92@\x96\x8e\x9b)&g\x94@e\x0f\x1b\x998\x83\x94@\xa2\x12\x19W\x82\xf3\x94@\xfc\xda\xe0g\xca\xff\x94@RUd[I;\x94@9\x13\xac\x83\xdeg\x93@'
p279
tp280
bsg18
(lp281
g20
(g13
S'\\\xd2\x84\x94\x16\xdf}?'
p282
tp283
Rp284
ag20
(g13
S'\xab!hy\xaf\xed\xb0?'
p285
tp286
Rp287
asg27
I62
sg28
(F0.006299999999999998
F0.11610000000000004
g20
(g13
S'\x12\xf6\xf6\xb0\xd0j\xd5@'
p288
tp289
Rp290
tp291
sg33
g20
(g13
S'\xb9&l\xff[\xaf\xed?'
p292
tp293
Rp294
sg37
(lp295
(F0.0093
F0.0711
tp296
a(F0.008299999999999998
F0.10110000000000002
tp297
a(F0.0083
F0.06609999999999999
tp298
a(F0.008299999999999998
F0.11110000000000003
tp299
a(F0.0083
F0.0811
tp300
a(F0.006299999999999998
F0.09610000000000002
tp301
a(F0.005299999999999998
F0.10110000000000002
tp302
a(F0.006299999999999998
F0.11110000000000003
tp303
a(F0.008299999999999998
F0.0711
tp304
a(F0.005299999999999998
F0.10610000000000003
tp305
a(F0.0063
F0.0761
tp306
a(F0.0093
F0.0811
tp307
a(F0.0093
F0.06609999999999999
tp308
a(F0.0083
F0.0611
tp309
a(F0.0103
F0.0811
tp310
a(F0.005299999999999998
F0.09110000000000001
tp311
a(F0.007299999999999998
F0.10110000000000002
tp312
a(F0.007299999999999998
F0.08610000000000001
tp313
a(F0.007299999999999998
F0.11110000000000003
tp314
a(F0.008299999999999998
F0.0811
tp315
a(F0.0093
F0.08610000000000001
tp316
a(F0.0063
F0.0661
tp317
a(F0.005299999999999998
F0.12110000000000004
tp318
a(F0.006299999999999998
F0.09110000000000001
tp319
a(F0.006299999999999998
F0.10610000000000003
tp320
a(F0.0073
F0.0811
tp321
a(F0.006299999999999998
F0.12110000000000004
tp322
a(F0.0103
F0.09110000000000001
tp323
a(F0.0073
F0.0761
tp324
a(F0.0063
F0.0711
tp325
a(F0.0093
F0.09610000000000002
tp326
a(F0.0073
F0.06609999999999999
tp327
a(F0.005299999999999998
F0.11110000000000003
tp328
a(F0.0063
F0.06609999999999999
tp329
a(F0.0093
F0.0761
tp330
a(F0.007299999999999998
F0.09110000000000001
tp331
a(F0.008299999999999998
F0.09610000000000002
tp332
a(F0.007299999999999998
F0.11610000000000004
tp333
a(F0.008299999999999998
F0.10610000000000003
tp334
a(F0.0083
F0.0661
tp335
a(F0.005299999999999998
F0.09610000000000002
tp336
a(F0.0073
F0.0611
tp337
a(F0.0083
F0.0711
tp338
a(F0.0103
F0.08610000000000001
tp339
a(F0.0093
F0.09110000000000001
tp340
a(F0.006299999999999998
F0.10110000000000002
tp341
a(F0.006299999999999998
F0.11610000000000004
tp342
a(F0.008299999999999998
F0.09110000000000001
tp343
a(F0.0073
F0.0661
tp344
a(F0.007299999999999998
F0.0811
tp345
a(F0.0083
F0.0761
tp346
a(F0.0103
F0.0711
tp347
a(F0.0103
F0.0761
tp348
a(F0.007299999999999998
F0.0761
tp349
a(F0.0073
F0.0711
tp350
a(F0.008299999999999998
F0.0761
tp351
a(F0.007299999999999998
F0.09610000000000002
tp352
a(F0.0063
F0.0611
tp353
a(F0.007299999999999998
F0.12110000000000004
tp354
a(F0.008299999999999998
F0.08610000000000001
tp355
a(F0.007299999999999998
F0.10610000000000003
tp356
a(F0.005299999999999998
F0.11610000000000004
tp357
assI5
(dp358
g2
g3
(g4
(I0
tp359
g6
tp360
Rp361
(I1
(L13L
tp362
g13
I00
S'\x82\x1e\xac@\x9e\x7fk@\xb1\xc7\x89\n Dv@\xc7\xae\xb3]\xb6\xfd\x80@\x95\xac\t>\x96\xee\x85@\x12\x8eO\x00\x19\x99\x8b@\xcf\xe6\x0b\xf1\x06\x12\x90@\xc5(\xf4u\xa2~\x92@\x02\x11\x8d\xba\xf2\xbe\x93@\xac0\xb6\xe9)\x9b\x94@\x7f^\xe7\xa7\x8f\x1a\x95@\x98\x17\x04\x9bc\x81\x95@\x9a\x94,\xff_\\\x94@\x07\xd5Sm^\x9c\x93@'
p363
tp364
bsg18
(lp365
g20
(g13
S'\xba\x1d\xf2\x1f\xd1\xbcw?'
p366
tp367
Rp368
ag20
(g13
S'\x92\x19B}\x8a\x15\xb1?'
p369
tp370
Rp371
asg27
I41
sg28
(F0.007799999999999999
F0.09170000000000002
g20
(g13
S'\xe9\x0f\xb8\xaab7\xd6@'
p372
tp373
Rp374
tp375
sg33
g20
(g13
S'\x1f<\xfc\xd2&\xa2\xed?'
p376
tp377
Rp378
sg37
(lp379
(F0.0098
F0.08170000000000001
tp380
a(F0.007799999999999999
F0.09170000000000002
tp381
a(F0.0078
F0.0667
tp382
a(F0.0048
F0.0617
tp383
a(F0.008799999999999999
F0.0767
tp384
a(F0.0068
F0.0767
tp385
a(F0.008799999999999999
F0.08670000000000001
tp386
a(F0.006799999999999999
F0.08170000000000001
tp387
a(F0.005799999999999999
F0.09670000000000002
tp388
a(F0.0068
F0.0617
tp389
a(F0.0058
F0.08170000000000001
tp390
a(F0.0058
F0.0717
tp391
a(F0.0048
F0.0717
tp392
a(F0.0048
F0.0667
tp393
a(F0.006799999999999999
F0.09670000000000002
tp394
a(F0.007799999999999999
F0.08670000000000001
tp395
a(F0.008799999999999999
F0.09170000000000002
tp396
a(F0.0078
F0.0717
tp397
a(F0.0078
F0.0767
tp398
a(F0.0098
F0.0717
tp399
a(F0.006799999999999999
F0.09170000000000002
tp400
a(F0.0058
F0.0667
tp401
a(F0.008799999999999999
F0.0717
tp402
a(F0.005799999999999999
F0.09170000000000002
tp403
a(F0.007799999999999999
F0.0767
tp404
a(F0.0078
F0.08170000000000001
tp405
a(F0.007799999999999999
F0.09670000000000002
tp406
a(F0.0058
F0.0617
tp407
a(F0.007799999999999999
F0.0717
tp408
a(F0.008799999999999999
F0.08170000000000001
tp409
a(F0.0068
F0.0667
tp410
a(F0.008799999999999999
F0.09670000000000002
tp411
a(F0.0068
F0.0717
tp412
a(F0.005799999999999999
F0.08670000000000001
tp413
a(F0.0098
F0.08670000000000001
tp414
a(F0.0058
F0.0767
tp415
a(F0.007799999999999999
F0.08170000000000001
tp416
a(F0.0098
F0.0767
tp417
a(F0.0068
F0.08170000000000001
tp418
a(F0.0048
F0.0767
tp419
a(F0.006799999999999999
F0.08670000000000001
tp420
assI6
(dp421
g2
g3
(g4
(I0
tp422
g6
tp423
Rp424
(I1
(L13L
tp425
g13
I00
S'\x1f\x06\xae*\xbe\xeen@\xb6BN=4\x05v@\xc2Q\xf0R\x07t\x7f@->im\xcc\x85\x85@\xefa>\x90\x93\xbe\x8a@^\xfc\x1feO\x97\x8f@\x96\x92\x16\xda\xfa\x08\x92@&M\xa0(B\xb5\x93@s]\xdc\xf7\x90j\x94@\xe5\xf4\xd1\x11K\x0b\x95@trn`o5\x95@S\x8a\xfe\xf1\x8c\xcd\x94@\xa2_\x16\xfb0\xdf\x94@'
p426
tp427
bsg18
(lp428
g20
(g13
S'\xf2\x1eJ\x8b\xac\xa7\x81?'
p429
tp430
Rp431
ag20
(g13
S'\xa1\xb3\xe6\x995Z\xb1?'
p432
tp433
Rp434
asg27
I34
sg28
(F0.0076
F0.08280000000000001
g20
(g13
S'$P\x8c\xe3C\xed\xd7@'
p435
tp436
Rp437
tp438
sg33
g20
(g13
S'\x81\xb5q1~e\xed?'
p439
tp440
Rp441
sg37
(lp442
(F0.009600000000000001
F0.08280000000000001
tp443
a(F0.010600000000000002
F0.0678
tp444
a(F0.010599999999999998
F0.0728
tp445
a(F0.0096
F0.0628
tp446
a(F0.010599999999999998
F0.07780000000000001
tp447
a(F0.0086
F0.0728
tp448
a(F0.0096
F0.0728
tp449
a(F0.0076
F0.0728
tp450
a(F0.009600000000000001
F0.08780000000000002
tp451
a(F0.0076
F0.08280000000000001
tp452
a(F0.0066
F0.08780000000000002
tp453
a(F0.010599999999999998
F0.08280000000000001
tp454
a(F0.0086
F0.08780000000000002
tp455
a(F0.0076
F0.0628
tp456
a(F0.0076
F0.08780000000000002
tp457
a(F0.0066
F0.08280000000000001
tp458
a(F0.0086
F0.0678
tp459
a(F0.009600000000000001
F0.07780000000000001
tp460
a(F0.0096
F0.08280000000000001
tp461
a(F0.0096
F0.08780000000000002
tp462
a(F0.010600000000000002
F0.07780000000000001
tp463
a(F0.010600000000000002
F0.0728
tp464
a(F0.010599999999999998
F0.0678
tp465
a(F0.010599999999999998
F0.08780000000000002
tp466
a(F0.0086
F0.07780000000000001
tp467
a(F0.0086
F0.08280000000000001
tp468
a(F0.0076
F0.07780000000000001
tp469
a(F0.009600000000000001
F0.0728
tp470
a(F0.009600000000000001
F0.0678
tp471
a(F0.0096
F0.07780000000000001
tp472
a(F0.0086
F0.0628
tp473
a(F0.0096
F0.0678
tp474
a(F0.0066
F0.07780000000000001
tp475
a(F0.0076
F0.0678
tp476
assI7
(dp477
g2
g3
(g4
(I0
tp478
g6
tp479
Rp480
(I1
(L13L
tp481
g13
I00
S'\xc4+\x05+J\x16m@u\x0bW\x07S\xdev@\x94\x99\x05=9\xf5\x80@2\xd3\xb1\xd7\x80Y\x85@\xd4F`\xaf\x91\xea\x8a@i\x90\x1a\xcf\xaeP\x8f@\x19\xabE\xfe\xc4:\x92@cA\xe2>\xa1"\x94@e\xa7`\x12\x96\x86\x94@\xbf\xe3\xde\x0b\xfe=\x95@\xd5r>\n\xd8k\x95@\x97\x06\x96\x81\xef\xae\x94@\xb7\xfa`\xc6\xaf\xdf\x93@'
p482
tp483
bsg18
(lp484
g20
(g13
S'3\x8bz]A\xf9w?'
p485
tp486
Rp487
ag20
(g13
S'\xd5\xd4\x17\xa2\xc3\xe5\xb0?'
p488
tp489
Rp490
asg27
I43
sg28
(F0.0079
F0.09100000000000001
g20
(g13
S'\xe7\xdd\xa84qc\xd6@'
p491
tp492
Rp493
tp494
sg33
g20
(g13
S'\xddW\x90\xd0>\xc2\xed?'
p495
tp496
Rp497
sg37
(lp498
(F0.0059
F0.06599999999999999
tp499
a(F0.006900000000000001
F0.081
tp500
a(F0.010900000000000003
F0.076
tp501
a(F0.0069
F0.061
tp502
a(F0.0059
F0.061
tp503
a(F0.006900000000000001
F0.06599999999999999
tp504
a(F0.0059
F0.066
tp505
a(F0.0079
F0.06599999999999999
tp506
a(F0.0059
F0.071
tp507
a(F0.0069
F0.066
tp508
a(F0.010900000000000003
F0.08600000000000001
tp509
a(F0.0079
F0.08600000000000001
tp510
a(F0.0069
F0.076
tp511
a(F0.009900000000000003
F0.08600000000000001
tp512
a(F0.0049
F0.076
tp513
a(F0.006900000000000001
F0.076
tp514
a(F0.010900000000000003
F0.081
tp515
a(F0.006900000000000001
F0.09100000000000001
tp516
a(F0.0079
F0.076
tp517
a(F0.008900000000000002
F0.071
tp518
a(F0.0049
F0.071
tp519
a(F0.006900000000000001
F0.071
tp520
a(F0.008900000000000002
F0.081
tp521
a(F0.0049
F0.061
tp522
a(F0.0059
F0.076
tp523
a(F0.0049
F0.066
tp524
a(F0.008900000000000002
F0.09100000000000001
tp525
a(F0.0079
F0.071
tp526
a(F0.0049
F0.06599999999999999
tp527
a(F0.008900000000000002
F0.08600000000000001
tp528
a(F0.006900000000000001
F0.09600000000000002
tp529
a(F0.0069
F0.06599999999999999
tp530
a(F0.0079
F0.09600000000000002
tp531
a(F0.006900000000000001
F0.08600000000000001
tp532
a(F0.008900000000000002
F0.06599999999999999
tp533
a(F0.008900000000000002
F0.09600000000000002
tp534
a(F0.008900000000000002
F0.076
tp535
a(F0.0079
F0.09100000000000001
tp536
a(F0.0069
F0.071
tp537
a(F0.009900000000000003
F0.081
tp538
a(F0.009900000000000003
F0.076
tp539
a(F0.0079
F0.081
tp540
a(F0.009900000000000003
F0.09100000000000001
tp541
assI8
(dp542
g2
g3
(g4
(I0
tp543
g6
tp544
Rp545
(I1
(L13L
tp546
g13
I00
S'\x12<\xb3\x07\xaa\xeei@\xaa%\x81\xb5\x06\x1dv@q\x9c5S-R\x7f@S\x02:\xa3\x03\xc8\x85@F\xda\xc2dA3\x8b@\xd2\x97\xa0S\x0f9\x8f@\x86\x04\x8b\xd9\x8eF\x92@\x9aT\n]%\xc4\x93@S\x84v\xe3\xe9\x91\x94@cj 0w\x10\x95@\x1d\xd13\x92\xa6\'\x95@v+"\x80\x14\xc6\x94@\x00\xbaJ\x94\x10\xaa\x94@'
p547
tp548
bsg18
(lp549
g20
(g13
S'M\x147\xa7\x06\xa4w?'
p550
tp551
Rp552
ag20
(g13
S'\x80h\x14\x0b\xb1\x96\xb1?'
p553
tp554
Rp555
asg27
I49
sg28
(F0.006799999999999999
F0.09370000000000002
g20
(g13
S'\x02k<\xaf\xc8\x95\xd7@'
p556
tp557
Rp558
tp559
sg33
g20
(g13
S'\x9fz\x95i\xec\x9f\xed?'
p560
tp561
Rp562
sg37
(lp563
(F0.0068
F0.0637
tp564
a(F0.0058
F0.06870000000000001
tp565
a(F0.0058
F0.05870000000000001
tp566
a(F0.0068
F0.0787
tp567
a(F0.005799999999999999
F0.09870000000000002
tp568
a(F0.0078
F0.08370000000000001
tp569
a(F0.005799999999999999
F0.08870000000000001
tp570
a(F0.0048
F0.0737
tp571
a(F0.008799999999999999
F0.0787
tp572
a(F0.0078
F0.0737
tp573
a(F0.0068
F0.05870000000000001
tp574
a(F0.008799999999999999
F0.09370000000000002
tp575
a(F0.0098
F0.0737
tp576
a(F0.006799999999999999
F0.09370000000000002
tp577
a(F0.007799999999999999
F0.09370000000000002
tp578
a(F0.006799999999999999
F0.09870000000000002
tp579
a(F0.0078
F0.0687
tp580
a(F0.0058
F0.0637
tp581
a(F0.0058
F0.08370000000000001
tp582
a(F0.0058
F0.0737
tp583
a(F0.006799999999999999
F0.08870000000000001
tp584
a(F0.0068
F0.0687
tp585
a(F0.006799999999999999
F0.08370000000000001
tp586
a(F0.008799999999999999
F0.0737
tp587
a(F0.007799999999999999
F0.09870000000000002
tp588
a(F0.0068
F0.0737
tp589
a(F0.008799999999999999
F0.08370000000000001
tp590
a(F0.007799999999999999
F0.08870000000000001
tp591
a(F0.0078
F0.05870000000000001
tp592
a(F0.0048
F0.0637
tp593
a(F0.0098
F0.08870000000000001
tp594
a(F0.005799999999999999
F0.09370000000000002
tp595
a(F0.0078
F0.06870000000000001
tp596
a(F0.0068
F0.06870000000000001
tp597
a(F0.0098
F0.0787
tp598
a(F0.0098
F0.08370000000000001
tp599
a(F0.0058
F0.0787
tp600
a(F0.008799999999999999
F0.08870000000000001
tp601
a(F0.0058
F0.0687
tp602
a(F0.0078
F0.0637
tp603
a(F0.008799999999999999
F0.09870000000000002
tp604
a(F0.0098
F0.09870000000000002
tp605
a(F0.0068
F0.08370000000000001
tp606
a(F0.007799999999999999
F0.08370000000000001
tp607
a(F0.0078
F0.0787
tp608
a(F0.0098
F0.09370000000000002
tp609
a(F0.007799999999999999
F0.0737
tp610
a(F0.007799999999999999
F0.0787
tp611
a(F0.0048
F0.0687
tp612
assI9
(dp613
g2
g3
(g4
(I0
tp614
g6
tp615
Rp616
(I1
(L13L
tp617
g13
I00
S"\xea\x18\x85\x16]\xe5d@\xe4\xbfU\x18\x13\xact@:\xd8*\xce\xf4\x01\x80@\xf3C\xdb\xcb\xef5\x86@\xe2\xcb\x06\x1e|\xdc\x8b@\xff\xc7\xba?'\xcd\x90@P\x8f\xb8e\x91\x05\x93@C\x1cm\x13\x81J\x94@\xe8\x1c\xde\xad\xf3\xf9\x94@(\xf7\xc2\xc4\xdc\x1c\x95@X'\xfb\r_\xf6\x94@\xa3x\x84\x0e\xef\xe8\x93@\x0e\xb9,\xe6>\xf7\x92@"
p618
tp619
bsg18
(lp620
g20
(g13
S'\x9d\xc6\x11U|\xfav?'
p621
tp622
Rp623
ag20
(g13
S'L\x12\x83\xc6P|\xb0?'
p624
tp625
Rp626
asg27
I61
sg28
(F0.0056
F0.12440000000000005
g20
(g13
S'\x10\xce\xbf\xde\xa1\xda\xd5@'
p627
tp628
Rp629
tp630
sg33
g20
(g13
S'\xabV\x83\x15\x15\xde\xed?'
p631
tp632
Rp633
sg37
(lp634
(F0.0076
F0.08440000000000002
tp635
a(F0.009600000000000001
F0.08940000000000002
tp636
a(F0.0076
F0.11440000000000004
tp637
a(F0.0046
F0.11440000000000004
tp638
a(F0.0066
F0.0694
tp639
a(F0.0086
F0.0644
tp640
a(F0.0086
F0.09940000000000003
tp641
a(F0.0056
F0.0694
tp642
a(F0.0076
F0.09940000000000003
tp643
a(F0.0066
F0.08940000000000002
tp644
a(F0.0076
F0.07440000000000001
tp645
a(F0.0056
F0.11940000000000005
tp646
a(F0.0086
F0.07440000000000001
tp647
a(F0.0066
F0.0644
tp648
a(F0.0066
F0.10940000000000004
tp649
a(F0.0046
F0.12440000000000005
tp650
a(F0.009600000000000001
F0.08440000000000002
tp651
a(F0.0046
F0.10940000000000004
tp652
a(F0.0066
F0.07940000000000001
tp653
a(F0.0066
F0.12940000000000004
tp654
a(F0.0076
F0.0594
tp655
a(F0.0066
F0.09440000000000003
tp656
a(F0.0076
F0.0644
tp657
a(F0.0086
F0.09440000000000003
tp658
a(F0.0056
F0.12440000000000005
tp659
a(F0.0076
F0.09440000000000003
tp660
a(F0.0056
F0.10940000000000004
tp661
a(F0.0066
F0.0594
tp662
a(F0.0046
F0.11940000000000005
tp663
a(F0.0076
F0.07940000000000001
tp664
a(F0.0066
F0.10440000000000003
tp665
a(F0.0056
F0.09940000000000003
tp666
a(F0.0066
F0.07440000000000001
tp667
a(F0.0076
F0.08940000000000002
tp668
a(F0.0086
F0.08440000000000002
tp669
a(F0.0066
F0.09940000000000003
tp670
a(F0.0086
F0.08940000000000002
tp671
a(F0.0076
F0.10440000000000003
tp672
a(F0.009600000000000001
F0.07940000000000001
tp673
a(F0.009600000000000001
F0.07440000000000001
tp674
a(F0.0076
F0.0694
tp675
a(F0.0086
F0.0694
tp676
a(F0.0066
F0.11440000000000004
tp677
a(F0.009600000000000001
F0.09440000000000003
tp678
a(F0.0046
F0.0694
tp679
a(F0.0056
F0.10440000000000003
tp680
a(F0.0056
F0.0644
tp681
a(F0.0086
F0.10440000000000003
tp682
a(F0.0056
F0.11440000000000004
tp683
a(F0.0066
F0.12440000000000005
tp684
a(F0.0046
F0.12940000000000004
tp685
a(F0.0046
F0.0644
tp686
a(F0.0046
F0.0594
tp687
a(F0.0066
F0.11940000000000005
tp688
a(F0.0056
F0.07440000000000001
tp689
a(F0.009600000000000001
F0.0694
tp690
a(F0.0046
F0.10440000000000003
tp691
a(F0.0056
F0.0594
tp692
a(F0.0086
F0.07940000000000001
tp693
a(F0.0056
F0.12940000000000004
tp694
a(F0.0076
F0.10940000000000004
tp695
ass.