(dp0
I0
(dp1
S'best_curve'
p2
cnumpy.core.multiarray
_reconstruct
p3
(cnumpy
ndarray
p4
(I0
tp5
S'b'
p6
tp7
Rp8
(I1
(L8L
tp9
cnumpy
dtype
p10
(S'f8'
p11
I0
I1
tp12
Rp13
(I3
S'<'
p14
NNNI-1
I-1
I0
tp15
bI00
S'D\xae\xd9\xaa\x1dT\x90@\xa3j\x1e\xc3\xc8\x97\xa0@\x1a\xd66\x16\xb8-\xaa@e]`J.\xa5\xb1@\x9f\xea\xc4\x90b\x98\xb4@D\xa6\xad0\xff\\\xb6@\x04Q\xd4\xaf92\xb6@\x19\xc4\xce\x99\x00?\xb5@'
p16
tp17
bsS'pq0'
p18
(lp19
cnumpy.core.multiarray
scalar
p20
(g13
S'"\xfd\x14P\xc8\x89z?'
p21
tp22
Rp23
ag20
(g13
S'7\x9e@k\xe4\x0e\xc1?'
p24
tp25
Rp26
asS'steps'
p27
I43
sS'params'
p28
(F0.010500000000000002
F0.15830000000000002
g20
(g13
S'\xcb\xd8j\xc8\xc1+\xef@'
p29
tp30
Rp31
tp32
sS'fitness'
p33
g20
(g13
S'\xb7,\xff\xaa#\x89\xed?'
p34
tp35
Rp36
sS'path'
p37
(lp38
(F0.0065
F0.1283
tp39
a(F0.010500000000000002
F0.1383
tp40
a(F0.009500000000000001
F0.1433
tp41
a(F0.007500000000000001
F0.1433
tp42
a(F0.009500000000000001
F0.1383
tp43
a(F0.011500000000000003
F0.14830000000000002
tp44
a(F0.011500000000000003
F0.1433
tp45
a(F0.012500000000000004
F0.15330000000000002
tp46
a(F0.0085
F0.14830000000000002
tp47
a(F0.010500000000000002
F0.16330000000000003
tp48
a(F0.010500000000000002
F0.1333
tp49
a(F0.007500000000000001
F0.14830000000000002
tp50
a(F0.011500000000000003
F0.16330000000000003
tp51
a(F0.007500000000000001
F0.1383
tp52
a(F0.0085
F0.1383
tp53
a(F0.009500000000000001
F0.15330000000000002
tp54
a(F0.010500000000000002
F0.15830000000000002
tp55
a(F0.0065
F0.1333
tp56
a(F0.0085
F0.1433
tp57
a(F0.012500000000000004
F0.14830000000000002
tp58
a(F0.009500000000000001
F0.15830000000000002
tp59
a(F0.0065
F0.1383
tp60
a(F0.009500000000000001
F0.1333
tp61
a(F0.012500000000000004
F0.16330000000000003
tp62
a(F0.0055
F0.1333
tp63
a(F0.010500000000000002
F0.15330000000000002
tp64
a(F0.0075
F0.1283
tp65
a(F0.012500000000000004
F0.1433
tp66
a(F0.011500000000000003
F0.15330000000000002
tp67
a(F0.0075
F0.1383
tp68
a(F0.0065
F0.1433
tp69
a(F0.011500000000000003
F0.15830000000000002
tp70
a(F0.0085
F0.1283
tp71
a(F0.0075
F0.1433
tp72
a(F0.010500000000000002
F0.1433
tp73
a(F0.012500000000000004
F0.15830000000000002
tp74
a(F0.0055
F0.1283
tp75
a(F0.009500000000000001
F0.16330000000000003
tp76
a(F0.010500000000000002
F0.14830000000000002
tp77
a(F0.0085
F0.1333
tp78
a(F0.009500000000000001
F0.14830000000000002
tp79
a(F0.0075
F0.1333
tp80
a(F0.0055
F0.1383
tp81
assI1
(dp82
g2
g3
(g4
(I0
tp83
g6
tp84
Rp85
(I1
(L8L
tp86
g13
I00
S'\xe8\xae^\xda\x9f\x16\x93@\xe3p6\xc63/\xa1@\xcd\x0b\x05\x83I8\xaa@Ee2\xc48\x8c\xb1@\xf0K\x8a\xc5\x87\xb0\xb4@d\xaf\xc2\xe1$\x10\xb6@^<\xb5\x85\xf0Y\xb6@\xa4/S\xffr\n\xb5@'
p87
tp88
bsg18
(lp89
g20
(g13
S'\x13S\x8a\xa1M\xda\x87?'
p90
tp91
Rp92
ag20
(g13
S'I\x7f8y\xa7(\xc1?'
p93
tp94
Rp95
asg27
I25
sg28
(F0.013600000000000001
F0.1341
g20
(g13
S'\xc5\xe2\xae\x02\xa0G\xee@'
p96
tp97
Rp98
tp99
sg33
g20
(g13
S'/\xc1\xe7\xdb\xbcU\xed?'
p100
tp101
Rp102
sg37
(lp103
(F0.010599999999999998
F0.1291
tp104
a(F0.0126
F0.1341
tp105
a(F0.014600000000000002
F0.1391
tp106
a(F0.0116
F0.1291
tp107
a(F0.0116
F0.1441
tp108
a(F0.013600000000000001
F0.1291
tp109
a(F0.014600000000000002
F0.1441
tp110
a(F0.0126
F0.1391
tp111
a(F0.013600000000000001
F0.1441
tp112
a(F0.014600000000000002
F0.1491
tp113
a(F0.0106
F0.1391
tp114
a(F0.013600000000000001
F0.1341
tp115
a(F0.013600000000000001
F0.1491
tp116
a(F0.0116
F0.1341
tp117
a(F0.0126
F0.1291
tp118
a(F0.0106
F0.1291
tp119
a(F0.0106
F0.1341
tp120
a(F0.013600000000000001
F0.1391
tp121
a(F0.010599999999999998
F0.1391
tp122
a(F0.0126
F0.1441
tp123
a(F0.014600000000000002
F0.1291
tp124
a(F0.0116
F0.1391
tp125
a(F0.014600000000000002
F0.1341
tp126
a(F0.0126
F0.1491
tp127
a(F0.010599999999999998
F0.1341
tp128
assI2
(dp129
g2
g3
(g4
(I0
tp130
g6
tp131
Rp132
(I1
(L8L
tp133
g13
I00
S'W\x88}\x84C\xce\x90@S\xbf\xf0p\x14\xcd\xa0@\xf5}\x1b\x8b"w\xab@\xf0vl\x96h$\xb2@Le=jZ\xdb\xb4@&\x83\xcc\x07\xb3"\xb6@b\x14G\x87\'\xd5\xb5@\xaeD\xa4\xf8w\xb5\xb4@'
p134
tp135
bsg18
(lp136
g20
(g13
S'[\xce\x19\xa6\x93\xd7\x80?'
p137
tp138
Rp139
ag20
(g13
S'|\xc9|\xd9cF\xc1?'
p140
tp141
Rp142
asg27
I45
sg28
(F0.011200000000000002
F0.16500000000000004
g20
(g13
S'\xfa\xb2#KS\xe7\xec@'
p143
tp144
Rp145
tp146
sg33
g20
(g13
S'\xbc\xed\xce\xde\xf9\x87\xed?'
p147
tp148
Rp149
sg37
(lp150
(F0.0092
F0.15000000000000002
tp151
a(F0.0082
F0.135
tp152
a(F0.0102
F0.14500000000000002
tp153
a(F0.0072
F0.14
tp154
a(F0.0102
F0.14
tp155
a(F0.0072
F0.135
tp156
a(F0.0102
F0.135
tp157
a(F0.012200000000000003
F0.17000000000000004
tp158
a(F0.011200000000000002
F0.16500000000000004
tp159
a(F0.0092
F0.14
tp160
a(F0.011200000000000002
F0.16000000000000003
tp161
a(F0.0102
F0.15000000000000002
tp162
a(F0.012200000000000003
F0.15500000000000003
tp163
a(F0.0092
F0.14500000000000002
tp164
a(F0.0082
F0.13
tp165
a(F0.008199999999999999
F0.125
tp166
a(F0.011200000000000002
F0.135
tp167
a(F0.0082
F0.14
tp168
a(F0.008199999999999999
F0.14500000000000002
tp169
a(F0.0092
F0.16000000000000003
tp170
a(F0.012200000000000003
F0.15000000000000002
tp171
a(F0.008199999999999999
F0.13
tp172
a(F0.0072
F0.13
tp173
a(F0.0102
F0.16500000000000004
tp174
a(F0.0092
F0.16500000000000004
tp175
a(F0.0092
F0.135
tp176
a(F0.0102
F0.15500000000000003
tp177
a(F0.0102
F0.125
tp178
a(F0.011200000000000002
F0.14500000000000002
tp179
a(F0.011200000000000002
F0.15000000000000002
tp180
a(F0.011200000000000002
F0.14
tp181
a(F0.0102
F0.17000000000000004
tp182
a(F0.0092
F0.15500000000000003
tp183
a(F0.008199999999999999
F0.135
tp184
a(F0.0102
F0.16000000000000003
tp185
a(F0.012200000000000003
F0.14500000000000002
tp186
a(F0.012200000000000003
F0.14
tp187
a(F0.0092
F0.125
tp188
a(F0.011200000000000002
F0.17000000000000004
tp189
a(F0.012200000000000003
F0.16500000000000004
tp190
a(F0.0092
F0.13
tp191
a(F0.0102
F0.13
tp192
a(F0.012200000000000003
F0.16000000000000003
tp193
a(F0.008199999999999999
F0.14
tp194
a(F0.011200000000000002
F0.15500000000000003
tp195
assI3
(dp196
g2
g3
(g4
(I0
tp197
g6
tp198
Rp199
(I1
(L8L
tp200
g13
I00
S'L\x97\x96\':\xc2\x92@\xf1\n\x1b"\xda\x9a\xa1@\xf43\xb5P\x8ai\xab@\xb6\\\xe1\xb0{\x1b\xb2@\r\xca\xe6\xbd\xff\xd8\xb4@\x8aS\x1aP=\x12\xb6@\x17,[\xc2\xfd\xc8\xb5@\x95\x92J83\x89\xb4@'
p201
tp202
bsg18
(lp203
g20
(g13
S'?\x82\x035\xec\xde{?'
p204
tp205
Rp206
ag20
(g13
S'\xb9Uvzu\xbd\xc0?'
p207
tp208
Rp209
asg27
I43
sg28
(F0.012800000000000002
F0.15080000000000002
g20
(g13
S'\x9f\x00v\xb3\xed\x13\xed@'
p210
tp211
Rp212
tp213
sg33
g20
(g13
S'd\xf7v\xc7\xb2Q\xed?'
p214
tp215
Rp216
sg37
(lp217
(F0.013800000000000003
F0.1458
tp218
a(F0.008799999999999999
F0.1408
tp219
a(F0.0078
F0.1358
tp220
a(F0.012800000000000002
F0.15080000000000002
tp221
a(F0.0108
F0.1308
tp222
a(F0.011800000000000001
F0.1458
tp223
a(F0.008799999999999999
F0.1458
tp224
a(F0.0068
F0.1308
tp225
a(F0.012800000000000002
F0.15580000000000002
tp226
a(F0.0068
F0.1458
tp227
a(F0.013800000000000003
F0.15580000000000002
tp228
a(F0.0058
F0.1308
tp229
a(F0.0108
F0.1408
tp230
a(F0.0078
F0.1258
tp231
a(F0.0098
F0.1458
tp232
a(F0.0098
F0.15080000000000002
tp233
a(F0.007799999999999999
F0.1358
tp234
a(F0.013800000000000003
F0.15080000000000002
tp235
a(F0.0108
F0.1358
tp236
a(F0.008799999999999999
F0.1258
tp237
a(F0.0078
F0.1408
tp238
a(F0.0098
F0.1358
tp239
a(F0.007799999999999999
F0.1408
tp240
a(F0.011800000000000001
F0.15580000000000002
tp241
a(F0.0098
F0.15580000000000002
tp242
a(F0.008799999999999999
F0.1308
tp243
a(F0.0108
F0.15580000000000002
tp244
a(F0.0108
F0.1458
tp245
a(F0.011800000000000001
F0.15080000000000002
tp246
a(F0.0068
F0.1408
tp247
a(F0.007799999999999999
F0.1458
tp248
a(F0.0098
F0.1408
tp249
a(F0.012800000000000002
F0.1458
tp250
a(F0.0068
F0.1358
tp251
a(F0.0078
F0.1308
tp252
a(F0.008799999999999999
F0.1358
tp253
a(F0.0078
F0.1458
tp254
a(F0.0108
F0.15080000000000002
tp255
a(F0.0058
F0.1258
tp256
a(F0.0058
F0.1358
tp257
a(F0.0098
F0.1308
tp258
a(F0.0068
F0.1258
tp259
a(F0.008799999999999999
F0.15080000000000002
tp260
assI4
(dp261
g2
g3
(g4
(I0
tp262
g6
tp263
Rp264
(I1
(L8L
tp265
g13
I00
S'\xf6^\xcbR\x19\x9c\x90@a\xea\x84\xb6\x86\xc7\xa1@\x00S\xbfz#\xd6\xab@\xf1\xb0\xc8_\xbf%\xb2@\x11\re\xdd\x0f.\xb5@\xfbX\xc5f\x1e9\xb6@\xc6\xd2A\x8f\xc6\xc3\xb5@\x93A\xb8OB\x07\xb4@'
p266
tp267
bsg18
(lp268
g20
(g13
S'\xaaj\xaf"\x82 \x7f?'
p269
tp270
Rp271
ag20
(g13
S'n\xf7\x86\xfe\xed8\xc1?'
p272
tp273
Rp274
asg27
I59
sg28
(F0.011600000000000003
F0.16950000000000004
g20
(g13
S'{q\xd1\xf4\x8f9\xec@'
p275
tp276
Rp277
tp278
sg33
g20
(g13
S'$\xe3\x86v\x9a\x8a\xed?'
p279
tp280
Rp281
sg37
(lp282
(F0.0066
F0.1345
tp283
a(F0.0086
F0.15450000000000003
tp284
a(F0.011600000000000003
F0.14450000000000002
tp285
a(F0.010600000000000002
F0.16450000000000004
tp286
a(F0.0066
F0.1395
tp287
a(F0.012600000000000004
F0.14450000000000002
tp288
a(F0.010600000000000002
F0.14450000000000002
tp289
a(F0.0086
F0.1395
tp290
a(F0.009600000000000001
F0.1395
tp291
a(F0.012600000000000004
F0.17450000000000004
tp292
a(F0.0066
F0.1295
tp293
a(F0.0076
F0.1345
tp294
a(F0.012600000000000004
F0.15950000000000003
tp295
a(F0.009600000000000001
F0.15450000000000003
tp296
a(F0.009600000000000001
F0.16950000000000004
tp297
a(F0.009600000000000001
F0.1345
tp298
a(F0.011600000000000003
F0.1345
tp299
a(F0.010600000000000002
F0.15450000000000003
tp300
a(F0.011600000000000003
F0.16950000000000004
tp301
a(F0.011600000000000003
F0.1395
tp302
a(F0.010600000000000002
F0.1245
tp303
a(F0.011600000000000003
F0.14950000000000002
tp304
a(F0.012600000000000004
F0.14950000000000002
tp305
a(F0.0076
F0.14950000000000002
tp306
a(F0.013600000000000004
F0.14450000000000002
tp307
a(F0.010600000000000002
F0.14950000000000002
tp308
a(F0.010600000000000002
F0.1345
tp309
a(F0.0086
F0.14450000000000002
tp310
a(F0.0086
F0.15950000000000003
tp311
a(F0.012600000000000004
F0.16450000000000004
tp312
a(F0.010600000000000002
F0.17450000000000004
tp313
a(F0.009600000000000001
F0.14950000000000002
tp314
a(F0.0076
F0.1295
tp315
a(F0.011600000000000003
F0.15950000000000003
tp316
a(F0.010600000000000002
F0.1295
tp317
a(F0.0086
F0.1295
tp318
a(F0.012600000000000004
F0.15450000000000003
tp319
a(F0.011600000000000003
F0.17450000000000004
tp320
a(F0.011600000000000003
F0.15450000000000003
tp321
a(F0.0076
F0.1395
tp322
a(F0.009600000000000001
F0.1245
tp323
a(F0.0086
F0.1345
tp324
a(F0.009600000000000001
F0.15950000000000003
tp325
a(F0.012600000000000004
F0.16950000000000004
tp326
a(F0.009600000000000001
F0.14450000000000002
tp327
a(F0.0066
F0.14450000000000002
tp328
a(F0.013600000000000004
F0.14950000000000002
tp329
a(F0.0086
F0.1245
tp330
a(F0.010600000000000002
F0.15950000000000003
tp331
a(F0.010600000000000002
F0.1395
tp332
a(F0.009600000000000001
F0.16450000000000004
tp333
a(F0.0076
F0.1245
tp334
a(F0.009600000000000001
F0.1295
tp335
a(F0.010600000000000002
F0.16950000000000004
tp336
a(F0.013600000000000004
F0.15450000000000003
tp337
a(F0.0086
F0.14950000000000002
tp338
a(F0.0076
F0.14450000000000002
tp339
a(F0.011600000000000003
F0.1295
tp340
a(F0.011600000000000003
F0.16450000000000004
tp341
assI5
(dp342
g2
g3
(g4
(I0
tp343
g6
tp344
Rp345
(I1
(L8L
tp346
g13
I00
S'\xd1Uou\xdb\x94\x8e@C\xca\x82=\xe3\xfb\x9f@\x10\xbb\xfaY\xd5F\xaa@g\xaag\xcb\xbe\xb9\xb1@\x87I\xf8,\xcd\xb7\xb4@\x10n\xbc\x7fUL\xb6@C\x9fn\x93]\x12\xb6@\xae\x80\xa5\xed\x11j\xb5@'
p347
tp348
bsg18
(lp349
g20
(g13
S'YKx\x02\x83\xf8}?'
p350
tp351
Rp352
ag20
(g13
S'\xae\xab\r\xef\x04\x1b\xc1?'
p353
tp354
Rp355
asg27
I40
sg28
(F0.011300000000000001
F0.15360000000000001
g20
(g13
S'\xb0\xf9\x97Puo\xee@'
p356
tp357
Rp358
tp359
sg33
g20
(g13
S'\x9a\n`\xfcz\x9a\xed?'
p360
tp361
Rp362
sg37
(lp363
(F0.0063
F0.1386
tp364
a(F0.0103
F0.15860000000000002
tp365
a(F0.0103
F0.1386
tp366
a(F0.012300000000000002
F0.15860000000000002
tp367
a(F0.0073
F0.1386
tp368
a(F0.008299999999999998
F0.1336
tp369
a(F0.011300000000000001
F0.1486
tp370
a(F0.0073
F0.12359999999999999
tp371
a(F0.0093
F0.1386
tp372
a(F0.0073
F0.1436
tp373
a(F0.0103
F0.1486
tp374
a(F0.011300000000000001
F0.1336
tp375
a(F0.0093
F0.12359999999999999
tp376
a(F0.011300000000000001
F0.15860000000000002
tp377
a(F0.0093
F0.1486
tp378
a(F0.0103
F0.1436
tp379
a(F0.008299999999999998
F0.1486
tp380
a(F0.0083
F0.1286
tp381
a(F0.011300000000000001
F0.15360000000000001
tp382
a(F0.011300000000000001
F0.1436
tp383
a(F0.0083
F0.1386
tp384
a(F0.012300000000000002
F0.15360000000000001
tp385
a(F0.008299999999999998
F0.1436
tp386
a(F0.0103
F0.1336
tp387
a(F0.0063
F0.1336
tp388
a(F0.0093
F0.1436
tp389
a(F0.0083
F0.12359999999999999
tp390
a(F0.011300000000000001
F0.1386
tp391
a(F0.0083
F0.1336
tp392
a(F0.0073
F0.1286
tp393
a(F0.0093
F0.1286
tp394
a(F0.0103
F0.15360000000000001
tp395
a(F0.0093
F0.15360000000000001
tp396
a(F0.008299999999999998
F0.1386
tp397
a(F0.0073
F0.1336
tp398
a(F0.012300000000000002
F0.1436
tp399
a(F0.0083
F0.1436
tp400
a(F0.012300000000000002
F0.1486
tp401
a(F0.0063
F0.1286
tp402
a(F0.0093
F0.1336
tp403
assI6
(dp404
g2
g3
(g4
(I0
tp405
g6
tp406
Rp407
(I1
(L8L
tp408
g13
I00
S'L\x11\xf1\xcb\x1b\\\x92@=\xdap\x9e\xc0\xd5\xa1@\xe4iV\xf4\xb2K\xab@\xd7\xaf\xb3q\xd7\xe6\xb1@Z2\xd2zz\x1d\xb5@\xa4\xb3\x8e\x1d#-\xb6@\xff\x8fDL\xec\x17\xb6@\xb6\xaf\xfe\xf8z\x15\xb4@'
p409
tp410
bsg18
(lp411
g20
(g13
S'\xf3\x01\xd4\xa1\x9c\xe4\x81?'
p412
tp413
Rp414
ag20
(g13
S'Tap\xfeN\x00\xc1?'
p415
tp416
Rp417
asg27
I39
sg28
(F0.012700000000000003
F0.15280000000000002
g20
(g13
S'\xd1:\xab\x88\x04\xc6\xec@'
p418
tp419
Rp420
tp421
sg33
g20
(g13
S'\xf23\xc8\x8d\xc4\x87\xed?'
p422
tp423
Rp424
sg37
(lp425
(F0.011700000000000002
F0.1328
tp426
a(F0.0087
F0.1428
tp427
a(F0.010700000000000001
F0.15280000000000002
tp428
a(F0.0097
F0.1378
tp429
a(F0.012700000000000003
F0.15780000000000002
tp430
a(F0.013700000000000004
F0.1378
tp431
a(F0.013700000000000004
F0.15780000000000002
tp432
a(F0.0097
F0.15280000000000002
tp433
a(F0.010700000000000001
F0.1328
tp434
a(F0.012700000000000003
F0.15280000000000002
tp435
a(F0.011700000000000002
F0.15780000000000002
tp436
a(F0.011700000000000002
F0.1278
tp437
a(F0.011700000000000002
F0.1428
tp438
a(F0.0077
F0.1278
tp439
a(F0.010700000000000001
F0.1428
tp440
a(F0.0087
F0.1378
tp441
a(F0.0097
F0.14780000000000001
tp442
a(F0.012700000000000003
F0.14780000000000001
tp443
a(F0.0087
F0.1328
tp444
a(F0.0077
F0.1328
tp445
a(F0.013700000000000004
F0.1428
tp446
a(F0.0077
F0.1378
tp447
a(F0.007699999999999999
F0.1428
tp448
a(F0.012700000000000003
F0.1428
tp449
a(F0.011700000000000002
F0.1378
tp450
a(F0.007699999999999999
F0.1328
tp451
a(F0.0087
F0.1278
tp452
a(F0.010700000000000001
F0.14780000000000001
tp453
a(F0.011700000000000002
F0.15280000000000002
tp454
a(F0.0097
F0.1328
tp455
a(F0.013700000000000004
F0.14780000000000001
tp456
a(F0.0097
F0.1278
tp457
a(F0.012700000000000003
F0.1378
tp458
a(F0.013700000000000004
F0.15280000000000002
tp459
a(F0.010700000000000001
F0.1278
tp460
a(F0.0097
F0.1428
tp461
a(F0.007699999999999999
F0.1378
tp462
a(F0.010700000000000001
F0.1378
tp463
a(F0.011700000000000002
F0.14780000000000001
tp464
assI7
(dp465
g2
g3
(g4
(I0
tp466
g6
tp467
Rp468
(I1
(L8L
tp469
g13
I00
S'\x14\xa9\xae\xc3\xb8\x93\x8f@8\xfd\xa4\xf9\xa4\xbd\xa0@lOwa+\x86\xab@\x16\xf40\xc0\xd6Y\xb2@a\xc6D5m\xfe\xb4@\xbdX\xcd\xe6<E\xb6@1\xe0\xe1y\xd5\xdb\xb5@\xb9\x11\xa1\xc0\xf5X\xb4@'
p470
tp471
bsg18
(lp472
g20
(g13
S'\xfbwO\xe5C\x89~?'
p473
tp474
Rp475
ag20
(g13
S'\xbd\xca\xc7\x1csE\xc1?'
p476
tp477
Rp478
asg27
I56
sg28
(F0.010500000000000002
F0.17990000000000003
g20
(g13
S'\xf0\\\xc3k\x9d\xc0\xec@'
p479
tp480
Rp481
tp482
sg33
g20
(g13
S'v\xc3\xd0g]\xca\xed?'
p483
tp484
Rp485
sg37
(lp486
(F0.011500000000000003
F0.1449
tp487
a(F0.011500000000000003
F0.16990000000000002
tp488
a(F0.007500000000000001
F0.1449
tp489
a(F0.011500000000000003
F0.17990000000000003
tp490
a(F0.011500000000000003
F0.1499
tp491
a(F0.009500000000000001
F0.17490000000000003
tp492
a(F0.010500000000000002
F0.17990000000000003
tp493
a(F0.011500000000000003
F0.1399
tp494
a(F0.0085
F0.1499
tp495
a(F0.011500000000000003
F0.17490000000000003
tp496
a(F0.009500000000000001
F0.17990000000000003
tp497
a(F0.009500000000000001
F0.16990000000000002
tp498
a(F0.009500000000000001
F0.1449
tp499
a(F0.0065
F0.1399
tp500
a(F0.013500000000000005
F0.1549
tp501
a(F0.010500000000000002
F0.17490000000000003
tp502
a(F0.012500000000000004
F0.1549
tp503
a(F0.013500000000000005
F0.15990000000000001
tp504
a(F0.011500000000000003
F0.16490000000000002
tp505
a(F0.009500000000000001
F0.1549
tp506
a(F0.011500000000000003
F0.1349
tp507
a(F0.011500000000000003
F0.15990000000000001
tp508
a(F0.0075
F0.1399
tp509
a(F0.0065
F0.1349
tp510
a(F0.0065
F0.1449
tp511
a(F0.009500000000000001
F0.18490000000000004
tp512
a(F0.010500000000000002
F0.16990000000000002
tp513
a(F0.013500000000000005
F0.16490000000000002
tp514
a(F0.009500000000000001
F0.1499
tp515
a(F0.0065
F0.1299
tp516
a(F0.010500000000000002
F0.1549
tp517
a(F0.0085
F0.1549
tp518
a(F0.009500000000000001
F0.1399
tp519
a(F0.0085
F0.1399
tp520
a(F0.0085
F0.1349
tp521
a(F0.010500000000000002
F0.16490000000000002
tp522
a(F0.012500000000000004
F0.16490000000000002
tp523
a(F0.011500000000000003
F0.18490000000000004
tp524
a(F0.007500000000000001
F0.1399
tp525
a(F0.009500000000000001
F0.15990000000000001
tp526
a(F0.009500000000000001
F0.1349
tp527
a(F0.010500000000000002
F0.1399
tp528
a(F0.010500000000000002
F0.1449
tp529
a(F0.010500000000000002
F0.18490000000000004
tp530
a(F0.0075
F0.1449
tp531
a(F0.009500000000000001
F0.16490000000000002
tp532
a(F0.0085
F0.1449
tp533
a(F0.007500000000000001
F0.1349
tp534
a(F0.010500000000000002
F0.1499
tp535
a(F0.012500000000000004
F0.15990000000000001
tp536
a(F0.010500000000000002
F0.15990000000000001
tp537
a(F0.010500000000000002
F0.1349
tp538
a(F0.011500000000000003
F0.1549
tp539
a(F0.0075
F0.1299
tp540
a(F0.0085
F0.1299
tp541
a(F0.0075
F0.1349
tp542
assI8
(dp543
g2
g3
(g4
(I0
tp544
g6
tp545
Rp546
(I1
(L8L
tp547
g13
I00
S't\xaa0\x05\xa2\x13\x91@3rV\x11V\x9b\xa0@o\xf5\x863\xab\x07\xaa@4\xa0\xee0\xda}\xb1@\xab}\xcb\xc9t\xa3\xb4@\x7f<s\x017G\xb6@\x0e\xf6\xb9\xb6\x1b\x02\xb6@\xd9\xc3\xb3`\x17\x8b\xb5@'
p548
tp549
bsg18
(lp550
g20
(g13
S'\x18\x94\x97\xcb\x062\x86?'
p551
tp552
Rp553
ag20
(g13
S'\x9eF\xb8\xcf\xb9\x8e\xc1?'
p554
tp555
Rp556
asg27
I27
sg28
(F0.011800000000000001
F0.1422
g20
(g13
S'\x97\x96[:s>\xef@'
p557
tp558
Rp559
tp560
sg33
g20
(g13
S'~\xf5\x81\xfa+Q\xed?'
p561
tp562
Rp563
sg37
(lp564
(F0.012800000000000002
F0.1522
tp565
a(F0.0118
F0.1322
tp566
a(F0.0108
F0.1372
tp567
a(F0.012799999999999999
F0.1272
tp568
a(F0.0118
F0.1372
tp569
a(F0.0098
F0.1372
tp570
a(F0.012799999999999999
F0.13720000000000002
tp571
a(F0.0118
F0.13720000000000002
tp572
a(F0.0108
F0.13720000000000002
tp573
a(F0.0108
F0.1272
tp574
a(F0.011800000000000001
F0.1472
tp575
a(F0.0108
F0.1472
tp576
a(F0.0118
F0.1422
tp577
a(F0.011800000000000001
F0.1372
tp578
a(F0.0098
F0.1322
tp579
a(F0.0108
F0.1522
tp580
a(F0.0108
F0.1422
tp581
a(F0.011800000000000001
F0.1522
tp582
a(F0.012799999999999999
F0.1322
tp583
a(F0.0108
F0.1322
tp584
a(F0.012800000000000002
F0.1422
tp585
a(F0.0098
F0.1472
tp586
a(F0.0118
F0.1272
tp587
a(F0.012800000000000002
F0.1372
tp588
a(F0.011800000000000001
F0.1422
tp589
a(F0.012800000000000002
F0.1472
tp590
a(F0.0098
F0.1422
tp591
assI9
(dp592
g2
g3
(g4
(I0
tp593
g6
tp594
Rp595
(I1
(L8L
tp596
g13
I00
S'\\.\xff\x92\xd4\x13\x90@v\xf3\x1c\xb5\x01\x8f\xa0@9\xea\x10\xe1mz\xaa@\x9209\x11\x8ay\xb1@\x9dx.\xa7\x08\x85\xb4@k\x98e\x0c\x80T\xb6@\xbd\xa5GwGN\xb6@\xf4\x12y\xef\x04D\xb5@'
p597
tp598
bsg18
(lp599
g20
(g13
S'UU\xf7\xc8\x9dSv?'
p600
tp601
Rp602
ag20
(g13
S'\x01\x86\xd3Mt\xd4\xc0?'
p603
tp604
Rp605
asg27
I43
sg28
(F0.011500000000000003
F0.15150000000000002
g20
(g13
S'g\xf8:\x1cH`\xee@'
p606
tp607
Rp608
tp609
sg33
g20
(g13
S'\xe2\xd5\x96^\xbak\xed?'
p610
tp611
Rp612
sg37
(lp613
(F0.0065
F0.14150000000000001
tp614
a(F0.010500000000000002
F0.15150000000000002
tp615
a(F0.012500000000000004
F0.15150000000000002
tp616
a(F0.0055
F0.1265
tp617
a(F0.0085
F0.1315
tp618
a(F0.0065
F0.1215
tp619
a(F0.012500000000000004
F0.15650000000000003
tp620
a(F0.011500000000000003
F0.15650000000000003
tp621
a(F0.0075
F0.1315
tp622
a(F0.0055
F0.1215
tp623
a(F0.0065
F0.1365
tp624
a(F0.012500000000000004
F0.14650000000000002
tp625
a(F0.010500000000000002
F0.14650000000000002
tp626
a(F0.0065
F0.1315
tp627
a(F0.0085
F0.15150000000000002
tp628
a(F0.009500000000000001
F0.1365
tp629
a(F0.0045
F0.1265
tp630
a(F0.010500000000000002
F0.14150000000000001
tp631
a(F0.0075
F0.1365
tp632
a(F0.0085
F0.1365
tp633
a(F0.011500000000000003
F0.15150000000000002
tp634
a(F0.0045
F0.1365
tp635
a(F0.011500000000000003
F0.14650000000000002
tp636
a(F0.009500000000000001
F0.14150000000000001
tp637
a(F0.009500000000000001
F0.14650000000000002
tp638
a(F0.007500000000000001
F0.14150000000000001
tp639
a(F0.0065
F0.1265
tp640
a(F0.009500000000000001
F0.15150000000000002
tp641
a(F0.010500000000000002
F0.1365
tp642
a(F0.0045
F0.1315
tp643
a(F0.0055
F0.1315
tp644
a(F0.0085
F0.14150000000000001
tp645
a(F0.0075
F0.1265
tp646
a(F0.0055
F0.1365
tp647
a(F0.007500000000000001
F0.1365
tp648
a(F0.011500000000000003
F0.1365
tp649
a(F0.010500000000000002
F0.15650000000000003
tp650
a(F0.0085
F0.1265
tp651
a(F0.011500000000000003
F0.14150000000000001
tp652
a(F0.0085
F0.14650000000000002
tp653
a(F0.007500000000000001
F0.14650000000000002
tp654
a(F0.0075
F0.1215
tp655
a(F0.0075
F0.14150000000000001
tp656
ass.