(dp0
I0
(dp1
S'best_curve'
p2
cnumpy.core.multiarray
_reconstruct
p3
(cnumpy
ndarray
p4
(I0
tp5
S'b'
p6
tp7
Rp8
(I1
(L13L
tp9
cnumpy
dtype
p10
(S'f8'
p11
I0
I1
tp12
Rp13
(I3
S'<'
p14
NNNI-1
I-1
I0
tp15
bI00
S'G\xb7\xb2\x8a|\xfdk@\xbd\xf9\x18\xa0\xf5\x03u@\xcc\x8e\xe9\xf0n\xe8}@\x12\x8a\xe6<`i\x83@\x82\xd8e\x15\xb9\x80\x88@\xb3r\x0e@\xd4\xe0\x8e@*\x1fo\x03\x82\x08\x92@#\xbd\xc4\xc4\xf3\xfc\x93@\xaa\xa4t\x9bA\xbe\x95@\xb7\xa9\xbbm,\xd4\x95@\x19\xb4\xd5\xba5\xdc\x95@\xe2\x81\x9b,=\xdd\x94@,\x94t\xe15\x95\x93@'
p16
tp17
bsS'pq0'
p18
(lp19
cnumpy.core.multiarray
scalar
p20
(g13
S'w\x11e\xaf.\xd3\x85?'
p21
tp22
Rp23
ag20
(g13
S"B'C?<\xb8\xaf?"
p24
tp25
Rp26
asS'steps'
p27
I37
sS'params'
p28
(F0.010699999999999998
F0.07200000000000001
g20
(g13
S'\xc0\xc6\xcb\x1f\x19\xd6\xd1@'
p29
tp30
Rp31
tp32
sS'fitness'
p33
g20
(g13
S'\xd1\n\xc7\x88\xe9\xb6\xed?'
p34
tp35
Rp36
sS'path'
p37
(lp38
(F0.011699999999999999
F0.07700000000000001
tp39
a(F0.0117
F0.057
tp40
a(F0.0117
F0.07700000000000001
tp41
a(F0.010699999999999998
F0.07200000000000001
tp42
a(F0.0107
F0.057
tp43
a(F0.0117
F0.067
tp44
a(F0.0117
F0.062
tp45
a(F0.0097
F0.07200000000000001
tp46
a(F0.010699999999999998
F0.07700000000000001
tp47
a(F0.0127
F0.08200000000000002
tp48
a(F0.0127
F0.07200000000000001
tp49
a(F0.009699999999999997
F0.07700000000000001
tp50
a(F0.009699999999999997
F0.07200000000000001
tp51
a(F0.0127
F0.062000000000000006
tp52
a(F0.011699999999999999
F0.067
tp53
a(F0.010699999999999998
F0.067
tp54
a(F0.0107
F0.062
tp55
a(F0.010700000000000001
F0.067
tp56
a(F0.011699999999999999
F0.07200000000000001
tp57
a(F0.0117
F0.062000000000000006
tp58
a(F0.0097
F0.062
tp59
a(F0.010700000000000001
F0.07700000000000001
tp60
a(F0.010700000000000001
F0.07200000000000001
tp61
a(F0.0127
F0.067
tp62
a(F0.0107
F0.07200000000000001
tp63
a(F0.009699999999999997
F0.067
tp64
a(F0.011699999999999999
F0.062000000000000006
tp65
a(F0.0117
F0.07200000000000001
tp66
a(F0.010700000000000001
F0.062000000000000006
tp67
a(F0.0107
F0.062000000000000006
tp68
a(F0.0117
F0.08200000000000002
tp69
a(F0.0097
F0.057
tp70
a(F0.0097
F0.067
tp71
a(F0.0097
F0.062000000000000006
tp72
a(F0.010700000000000001
F0.08200000000000002
tp73
a(F0.0107
F0.067
tp74
a(F0.0127
F0.07700000000000001
tp75
assI1
(dp76
g2
g3
(g4
(I0
tp77
g6
tp78
Rp79
(I1
(L13L
tp80
g13
I00
S'\xa7A@\xb1\xe6\x8ek@\x9e\xb1\xba\xbf\x804t@\x8d\xcd\xb5oM0}@\xf4$\xb0\x8br\x80\x83@\xeeY\xe9q\r\xde\x88@x-WnS\xa3\x8e@\xc32\x1a\xf0{\xd0\x92@x\x94\x141i\xc4\x94@\x08\xf0n5\xf9"\x96@\x98\x99\x98{<\x96\x96@Y\xb0\x17Q\x14\xc0\x95@Iv\xaa\xd5\x11\xe6\x93@\xdeB\xeb\x8f1\x03\x92@'
p81
tp82
bsg18
(lp83
g20
(g13
S'\xa9\xc6\x0b\xce?s\x86?'
p84
tp85
Rp86
ag20
(g13
S']\x06\x1dU@\x8d\xb0?'
p87
tp88
Rp89
asg27
I30
sg28
(F0.009999999999999998
F0.07970000000000001
g20
(g13
S'\x894\xcbW\xad\xa6\xd0@'
p90
tp91
Rp92
tp93
sg33
g20
(g13
S'\xd0p;\xbau\xf5\xed?'
p94
tp95
Rp96
sg37
(lp97
(F0.012
F0.0697
tp98
a(F0.008999999999999998
F0.08970000000000002
tp99
a(F0.009999999999999998
F0.07970000000000001
tp100
a(F0.011
F0.0647
tp101
a(F0.011
F0.08470000000000001
tp102
a(F0.011
F0.0747
tp103
a(F0.013000000000000001
F0.0647
tp104
a(F0.01
F0.0697
tp105
a(F0.009999999999999998
F0.0647
tp106
a(F0.011
F0.07970000000000001
tp107
a(F0.011
F0.0697
tp108
a(F0.007999999999999997
F0.08970000000000002
tp109
a(F0.009999999999999998
F0.08470000000000001
tp110
a(F0.009999999999999998
F0.0697
tp111
a(F0.008999999999999998
F0.07970000000000001
tp112
a(F0.012
F0.0597
tp113
a(F0.012
F0.0647
tp114
a(F0.008999999999999998
F0.0747
tp115
a(F0.011
F0.0597
tp116
a(F0.009999999999999998
F0.08970000000000002
tp117
a(F0.008999999999999998
F0.08470000000000001
tp118
a(F0.012
F0.0747
tp119
a(F0.01
F0.0647
tp120
a(F0.007999999999999997
F0.08470000000000001
tp121
a(F0.008999999999999998
F0.0697
tp122
a(F0.013000000000000001
F0.0697
tp123
a(F0.01
F0.0597
tp124
a(F0.013000000000000001
F0.0747
tp125
a(F0.007999999999999997
F0.07970000000000001
tp126
a(F0.009999999999999998
F0.0747
tp127
assI2
(dp128
g2
g3
(g4
(I0
tp129
g6
tp130
Rp131
(I1
(L13L
tp132
g13
I00
S'\x88\xdc\x17f\xc0:n@pt\xb5\x93\x9c\xc9v@\xb8\x18\x91\x95\x1a\x81~@q\xa9\x85\xa1\xd5\x16\x85@\xac\xb7+\x99s\xc8\x89@\x16/\x7f\xd3\x80\xc0\x8f@W\x93\xef\xfa\xb7X\x92@\xda\xf4.\x00\x9es\x94@`x-k\xdc\xcf\x95@\xee\xce\xe2\xd5.\xfc\x95@H\xdapS\xaf\xac\x95@]-\x88\xef\x005\x94@\x10\xb9\xb9\xb30\xef\x91@'
p133
tp134
bsg18
(lp135
g20
(g13
S'\x8c\xfbG\xb5%\x82\x84?'
p136
tp137
Rp138
ag20
(g13
S'\x18\x82\xa3\x0ct\x92\xb0?'
p139
tp140
Rp141
asg27
I28
sg28
(F0.011
F0.0747
g20
(g13
S'\xaa1\x19\x97\x04-\xd1@'
p142
tp143
Rp144
tp145
sg33
g20
(g13
S'\x8a 6\xeb\x91\xa9\xed?'
p146
tp147
Rp148
sg37
(lp149
(F0.012
F0.0697
tp150
a(F0.009999999999999998
F0.07970000000000001
tp151
a(F0.011
F0.0647
tp152
a(F0.011
F0.08470000000000001
tp153
a(F0.011
F0.0747
tp154
a(F0.009999999999999998
F0.0697
tp155
a(F0.009999999999999998
F0.0647
tp156
a(F0.012
F0.08470000000000001
tp157
a(F0.011
F0.07970000000000001
tp158
a(F0.012
F0.07970000000000001
tp159
a(F0.011
F0.0697
tp160
a(F0.008999999999999998
F0.0697
tp161
a(F0.008999999999999998
F0.07970000000000001
tp162
a(F0.012
F0.059699999999999996
tp163
a(F0.012
F0.0647
tp164
a(F0.009
F0.0697
tp165
a(F0.008999999999999998
F0.0747
tp166
a(F0.011
F0.0597
tp167
a(F0.01
F0.0697
tp168
a(F0.012
F0.0747
tp169
a(F0.01
F0.0647
tp170
a(F0.011
F0.059699999999999996
tp171
a(F0.009
F0.0647
tp172
a(F0.009999999999999998
F0.08470000000000001
tp173
a(F0.009
F0.0597
tp174
a(F0.009999999999999998
F0.059699999999999996
tp175
a(F0.01
F0.0597
tp176
a(F0.009999999999999998
F0.0747
tp177
assI3
(dp178
g2
g3
(g4
(I0
tp179
g6
tp180
Rp181
(I1
(L13L
tp182
g13
I00
S"i\x0c\xfc\x9e\xb4.f@\xa5X\xfer*cq@9\xad\x07g\x07\xcay@'\xfa\xc1\x88\x99\xf0\x81@\xebQ\xe8\xc1\xad\xdd\x87@\x16\xdfI\xd8\xacV\x8d@\xadAxw]{\x92@\x00\x8e\x8aA\xd0\xf1\x94@/|<H\xc0n\x96@\xb3\x1d\x00^/\xfc\x96@\xddw{\x98a;\x96@\x90\x1c\\\xf3\x07O\x94@\x10~G\x0fI\x0b\x92@"
p183
tp184
bsg18
(lp185
g20
(g13
S'\r~\xae\xde\x00U\x87?'
p186
tp187
Rp188
ag20
(g13
S'\xbaEW\xe0\x06\xd1\xb0?'
p189
tp190
Rp191
asg27
I37
sg28
(F0.008399999999999998
F0.08570000000000001
g20
(g13
S'\x9d\xc2\xfd\xda\xa1I\xd0@'
p192
tp193
Rp194
tp195
sg33
g20
(g13
S'[ B\xfb\x81\xc6\xed?'
p196
tp197
Rp198
sg37
(lp199
(F0.012400000000000001
F0.0607
tp200
a(F0.009399999999999999
F0.08570000000000001
tp201
a(F0.0124
F0.0607
tp202
a(F0.013399999999999999
F0.0707
tp203
a(F0.0114
F0.0607
tp204
a(F0.012400000000000001
F0.08070000000000001
tp205
a(F0.012400000000000001
F0.0707
tp206
a(F0.009399999999999999
F0.0757
tp207
a(F0.0104
F0.08570000000000001
tp208
a(F0.009399999999999999
F0.09070000000000002
tp209
a(F0.008399999999999998
F0.0757
tp210
a(F0.0104
F0.0657
tp211
a(F0.007399999999999998
F0.08070000000000001
tp212
a(F0.0124
F0.0757
tp213
a(F0.007399999999999998
F0.08570000000000001
tp214
a(F0.0104
F0.0707
tp215
a(F0.0114
F0.08070000000000001
tp216
a(F0.0114
F0.0657
tp217
a(F0.0104
F0.08070000000000001
tp218
a(F0.0114
F0.0707
tp219
a(F0.013399999999999999
F0.0657
tp220
a(F0.008399999999999998
F0.09070000000000002
tp221
a(F0.0104
F0.09070000000000002
tp222
a(F0.012400000000000001
F0.0757
tp223
a(F0.0124
F0.0657
tp224
a(F0.009399999999999999
F0.08070000000000001
tp225
a(F0.0114
F0.0757
tp226
a(F0.013399999999999999
F0.0757
tp227
a(F0.008399999999999998
F0.08070000000000001
tp228
a(F0.0124
F0.0707
tp229
a(F0.0114
F0.08570000000000001
tp230
a(F0.0104
F0.0607
tp231
a(F0.007399999999999998
F0.09070000000000002
tp232
a(F0.012400000000000001
F0.0657
tp233
a(F0.0104
F0.0757
tp234
a(F0.0114
F0.09070000000000002
tp235
a(F0.008399999999999998
F0.08570000000000001
tp236
assI4
(dp237
g2
g3
(g4
(I0
tp238
g6
tp239
Rp240
(I1
(L13L
tp241
g13
I00
S'<\xf3*\x17e`l@\xfa\xb8[\xf9\xdb\x1au@\xb7\xb0\xd9\xf5\xa0\xc3}@\x02\xad\x8d\xe0\xd5Q\x84@\x86\xfc\xc5\xf12N\x89@\xff]3(\x19x\x8f@\xca\xf0\xa3\x13\x9ep\x92@\x16\xbeRI\xfc\xbf\x94@6\xa9>\xab\xc9\xcb\x95@(\x18\xebF+,\x96@\x97\xf2f\x95s\x8c\x95@\n\xc7{\xd78\x88\x94@\n\x15\x80\xaaA\xf1\x91@'
p242
tp243
bsg18
(lp244
g20
(g13
S'\xf9\xb5\x8f\xd2\xb5\xb4\x84?'
p245
tp246
Rp247
ag20
(g13
S'\x81\xcb]@\x91,\xb0?'
p248
tp249
Rp250
asg27
I36
sg28
(F0.010099999999999998
F0.0782
g20
(g13
S'1\xeb\x91\\\xbc\xce\xd0@'
p251
tp252
Rp253
tp254
sg33
g20
(g13
S'\xfa\xee\xfab#\xda\xed?'
p255
tp256
Rp257
sg37
(lp258
(F0.011099999999999999
F0.08320000000000001
tp259
a(F0.011099999999999999
F0.0682
tp260
a(F0.0091
F0.06319999999999999
tp261
a(F0.0111
F0.0682
tp262
a(F0.0091
F0.0582
tp263
a(F0.0111
F0.06319999999999999
tp264
a(F0.0091
F0.0632
tp265
a(F0.011099999999999999
F0.0732
tp266
a(F0.009099999999999997
F0.0782
tp267
a(F0.0091
F0.0732
tp268
a(F0.010100000000000001
F0.06319999999999999
tp269
a(F0.010099999999999998
F0.0732
tp270
a(F0.0101
F0.06319999999999999
tp271
a(F0.010100000000000001
F0.0732
tp272
a(F0.009099999999999997
F0.0732
tp273
a(F0.010099999999999998
F0.0682
tp274
a(F0.0111
F0.0732
tp275
a(F0.010099999999999998
F0.0782
tp276
a(F0.011099999999999999
F0.0782
tp277
a(F0.0101
F0.0632
tp278
a(F0.0101
F0.0682
tp279
a(F0.0101
F0.0582
tp280
a(F0.011099999999999999
F0.06319999999999999
tp281
a(F0.009099999999999997
F0.08320000000000001
tp282
a(F0.0121
F0.0682
tp283
a(F0.0101
F0.0732
tp284
a(F0.010100000000000001
F0.0782
tp285
a(F0.010100000000000001
F0.0682
tp286
a(F0.0121
F0.06319999999999999
tp287
a(F0.0111
F0.0582
tp288
a(F0.0091
F0.0682
tp289
a(F0.0121
F0.0782
tp290
a(F0.0111
F0.0632
tp291
a(F0.0111
F0.0782
tp292
a(F0.010099999999999998
F0.08320000000000001
tp293
a(F0.0121
F0.0732
tp294
assI5
(dp295
g2
g3
(g4
(I0
tp296
g6
tp297
Rp298
(I1
(L13L
tp299
g13
I00
S's\x81\xfd\xea\xcawo@\x8eDjO\x04\xbdv@?\xa8\xc4o\xf8\xc6}@\xb4\xd8\xd1\xd7ka\x84@\xe1\xeb{\x01\x16\xe5\x88@\xd7\xc2\xa8*v\x1f\x8f@iy$\xd4$7\x92@\xad\xb9\xc9\xea\x96#\x94@%\x1e"\x8a"\xae\x95@\x8eUy\xf5\xac\xd3\x95@^\xac\xda\xb0tu\x95@\xef~\xd7\x19\x0b\xd2\x94@W\xd8L\xd1\xe6$\x93@'
p300
tp301
bsg18
(lp302
g20
(g13
S'TZ\xd4\x03D$\x87?'
p303
tp304
Rp305
ag20
(g13
S'V5\xc1!J\xb5\xb0?'
p306
tp307
Rp308
asg27
I26
sg28
(F0.0113
F0.0703
g20
(g13
S'\x10\x1d\x93v\x93\xf8\xd1@'
p309
tp310
Rp311
tp312
sg33
g20
(g13
S'Wf\x046\xbf\xae\xed?'
p313
tp314
Rp315
sg37
(lp316
(F0.0133
F0.0753
tp317
a(F0.0113
F0.0653
tp318
a(F0.0113
F0.0603
tp319
a(F0.011300000000000001
F0.0753
tp320
a(F0.012299999999999998
F0.0653
tp321
a(F0.0113
F0.0703
tp322
a(F0.0103
F0.0653
tp323
a(F0.011300000000000001
F0.0653
tp324
a(F0.0093
F0.08030000000000001
tp325
a(F0.011300000000000001
F0.0703
tp326
a(F0.0103
F0.08030000000000001
tp327
a(F0.0123
F0.0653
tp328
a(F0.0123
F0.0753
tp329
a(F0.0103
F0.0753
tp330
a(F0.0133
F0.0703
tp331
a(F0.0123
F0.0603
tp332
a(F0.0093
F0.0753
tp333
a(F0.0113
F0.0753
tp334
a(F0.0103
F0.0603
tp335
a(F0.0123
F0.0703
tp336
a(F0.012299999999999998
F0.0703
tp337
a(F0.011300000000000001
F0.08030000000000001
tp338
a(F0.0133
F0.0653
tp339
a(F0.012299999999999998
F0.0753
tp340
a(F0.0103
F0.0703
tp341
a(F0.0093
F0.0703
tp342
assI6
(dp343
g2
g3
(g4
(I0
tp344
g6
tp345
Rp346
(I1
(L13L
tp347
g13
I00
S'\xaf\x88w\x85*an@\xeeI\xad\xfd\xccdv@\x02\x11\x83\x8dN^~@n\x9f\x10%\xe2\x8f\x84@\xb21c\xb8G\xb0\x89@\xb1\xf1/\x89\xcbp\x8f@}\xf5/\x82\xe2L\x92@.?\x95\x81\x00o\x94@\x93\xf1\x0b\ntO\x95@\x8c\xc5\x8eMm\xed\x95@\xfa\xdc\x07\xa2g\xcf\x95@\x1c\xd1w\xba\xc4\xb5\x94@s\xe1\xe7O\xc1^\x92@'
p348
tp349
bsg18
(lp350
g20
(g13
S'\xfcv\xb0\xbbq\x11\x86?'
p351
tp352
Rp353
ag20
(g13
S'\xd8B\xea\xdc\xb9l\xb0?'
p354
tp355
Rp356
asg27
I23
sg28
(F0.0108
F0.0742
g20
(g13
S'Hn\x9c\xe5\x94s\xd1@'
p357
tp358
Rp359
tp360
sg33
g20
(g13
S'\xbbe\x9fp\x1a\xcb\xed?'
p361
tp362
Rp363
sg37
(lp364
(F0.0098
F0.0642
tp365
a(F0.0118
F0.0742
tp366
a(F0.0108
F0.0792
tp367
a(F0.0098
F0.0742
tp368
a(F0.011800000000000001
F0.0642
tp369
a(F0.011800000000000001
F0.0792
tp370
a(F0.0108
F0.0642
tp371
a(F0.0098
F0.0592
tp372
a(F0.0118
F0.0592
tp373
a(F0.0118
F0.0692
tp374
a(F0.0118
F0.0642
tp375
a(F0.011800000000000001
F0.0692
tp376
a(F0.0108
F0.0692
tp377
a(F0.011800000000000001
F0.0742
tp378
a(F0.012799999999999999
F0.0742
tp379
a(F0.0118
F0.0792
tp380
a(F0.012799999999999999
F0.0642
tp381
a(F0.0108
F0.0592
tp382
a(F0.012799999999999999
F0.0792
tp383
a(F0.0098
F0.0792
tp384
a(F0.0108
F0.0742
tp385
a(F0.0098
F0.0692
tp386
a(F0.012799999999999999
F0.0692
tp387
assI7
(dp388
g2
g3
(g4
(I0
tp389
g6
tp390
Rp391
(I1
(L13L
tp392
g13
I00
S"\xe7\xd0\x82\x1f\x99\x02h@s\xbdY\x04{\xd0r@1p\xc4w\xa1\xb1{@%5\xf6\x12\xd1\x99\x83@\xae\xe6\x89\x88[\xaf\x88@z%gW5\xa4\x8f@\xf2\x022\xe6]\xe1\x92@\x18\xa9\x83\xb7\x1d\x86\x95@F\xee\xd4\xeb\xd24\x96@pF\xb3'\xca\xd9\x96@ \x83i\xa8\x99\x99\x95@r\xd9b\x8b\x99\xae\x93@I\xbb\xed\xfdU\xde\x90@"
p393
tp394
bsg18
(lp395
g20
(g13
S'\xc9L\xc3w\xa8\x96\x86?'
p396
tp397
Rp398
ag20
(g13
S'\x03\xd6\x87\xacL;\xb0?'
p399
tp400
Rp401
asg27
I34
sg28
(F0.008999999999999998
F0.08840000000000002
g20
(g13
S'>5\xc6\xc0d\xb6\xcf@'
p402
tp403
Rp404
tp405
sg33
g20
(g13
S'\xc4}~\x9d!\xd3\xed?'
p406
tp407
Rp408
sg37
(lp409
(F0.009999999999999998
F0.08340000000000002
tp410
a(F0.009999999999999998
F0.09340000000000002
tp411
a(F0.01
F0.0684
tp412
a(F0.008999999999999998
F0.08340000000000002
tp413
a(F0.013000000000000001
F0.07840000000000001
tp414
a(F0.011
F0.08840000000000002
tp415
a(F0.01
F0.0584
tp416
a(F0.012
F0.0684
tp417
a(F0.011
F0.07840000000000001
tp418
a(F0.009999999999999998
F0.0634
tp419
a(F0.011
F0.0684
tp420
a(F0.007999999999999997
F0.08340000000000002
tp421
a(F0.013000000000000001
F0.0734
tp422
a(F0.009999999999999998
F0.08840000000000002
tp423
a(F0.012
F0.0584
tp424
a(F0.011
F0.0634
tp425
a(F0.008999999999999998
F0.09340000000000002
tp426
a(F0.009999999999999998
F0.0684
tp427
a(F0.007999999999999997
F0.09340000000000002
tp428
a(F0.012
F0.0734
tp429
a(F0.011
F0.0734
tp430
a(F0.01
F0.0634
tp431
a(F0.008999999999999998
F0.07840000000000001
tp432
a(F0.012
F0.07840000000000001
tp433
a(F0.007999999999999997
F0.08840000000000002
tp434
a(F0.008999999999999998
F0.08840000000000002
tp435
a(F0.013000000000000001
F0.0634
tp436
a(F0.011
F0.08340000000000002
tp437
a(F0.013000000000000001
F0.0684
tp438
a(F0.012
F0.0634
tp439
a(F0.008999999999999998
F0.0734
tp440
a(F0.009999999999999998
F0.07840000000000001
tp441
a(F0.009999999999999998
F0.0734
tp442
a(F0.011
F0.0584
tp443
assI8
(dp444
g2
g3
(g4
(I0
tp445
g6
tp446
Rp447
(I1
(L13L
tp448
g13
I00
S'8\x1c\xf4\xd3\x86\xdcj@\x93\xbd\x9b*\xf6+t@\\\x10\xf7\x07\xa3\xe8}@\xa2d\xd6\xd6w6\x84@\xaej\xf8q\x02\xf8\x89@N\xc0A\xa0\xe6A\x90@\xb0\xad2\xf7\xb5a\x93@\x8e_T\xc3\xc9=\x95@cTu\x82\xd6V\x96@S\xad:\xd6TL\x96@KM=;\xfar\x95@\x02g\x84+\x077\x93@\xb1\t\xc4*\xb4d\x90@'
p449
tp450
bsg18
(lp451
g20
(g13
S'\xb2z\x0c\x14\x8b`\x88?'
p452
tp453
Rp454
ag20
(g13
S'P\xdd\x9f~\xded\xb0?'
p455
tp456
Rp457
asg27
I32
sg28
(F0.009899999999999999
F0.08400000000000002
g20
(g13
S'|)\xffl\x1d\x08\xd0@'
p458
tp459
Rp460
tp461
sg33
g20
(g13
S'\xf2\xc84i\xf8\xb2\xed?'
p462
tp463
Rp464
sg37
(lp465
(F0.0119
F0.07400000000000001
tp466
a(F0.008899999999999998
F0.08400000000000002
tp467
a(F0.0139
F0.07400000000000001
tp468
a(F0.0109
F0.069
tp469
a(F0.012900000000000002
F0.064
tp470
a(F0.0109
F0.07900000000000001
tp471
a(F0.0119
F0.064
tp472
a(F0.0109
F0.059
tp473
a(F0.009899999999999999
F0.069
tp474
a(F0.008899999999999998
F0.08900000000000002
tp475
a(F0.0139
F0.064
tp476
a(F0.0109
F0.08900000000000002
tp477
a(F0.008899999999999998
F0.07900000000000001
tp478
a(F0.009899999999999999
F0.07900000000000001
tp479
a(F0.009899999999999999
F0.08400000000000002
tp480
a(F0.0129
F0.059
tp481
a(F0.0129
F0.069
tp482
a(F0.0109
F0.08400000000000002
tp483
a(F0.0119
F0.08400000000000002
tp484
a(F0.009899999999999999
F0.07400000000000001
tp485
a(F0.0129
F0.07400000000000001
tp486
a(F0.012900000000000002
F0.069
tp487
a(F0.0129
F0.064
tp488
a(F0.0139
F0.069
tp489
a(F0.0119
F0.059
tp490
a(F0.012900000000000002
F0.07400000000000001
tp491
a(F0.0109
F0.064
tp492
a(F0.0119
F0.07900000000000001
tp493
a(F0.0119
F0.069
tp494
a(F0.009899999999999999
F0.08900000000000002
tp495
a(F0.0109
F0.07400000000000001
tp496
a(F0.008899999999999998
F0.07400000000000001
tp497
assI9
(dp498
g2
g3
(g4
(I0
tp499
g6
tp500
Rp501
(I1
(L13L
tp502
g13
I00
S'\x16\xb6\xf9\n/\x0bp@WUG\xf9\xec~v@\x96\xc7b\xff\x0e\xeb~@QK\xfc\x83\xadx\x84@\x90p\xbd0\x11\xec\x89@\x19\xcc+\xfd\xb9\x10\x90@\x19$\x9f\xcf=\x0c\x93@R\x88\xc2\xa4\xda\xf8\x94@\xc9/\x13\xdak\xe4\x95@\xc3\x03\xaf\xf5U\xd9\x95@Q\xbaoLBv\x95@\xaa_\x05\xe1I\xac\x93@\xd8\xaf\x92\xcbg\x8c\x91@'
p503
tp504
bsg18
(lp505
g20
(g13
S'\xf3\xda0\x04\xbb\x12\x87?'
p506
tp507
Rp508
ag20
(g13
S'\xa9O\x82\x17k\xda\xb0?'
p509
tp510
Rp511
asg27
I28
sg28
(F0.0113
F0.0758
g20
(g13
S'\x07\xacY\x9fG\xea\xd0@'
p512
tp513
Rp514
tp515
sg33
g20
(g13
S'\x0f \xdd.>\xec\xed?'
p516
tp517
Rp518
sg37
(lp519
(F0.0123
F0.0758
tp520
a(F0.0113
F0.0708
tp521
a(F0.012299999999999998
F0.08080000000000001
tp522
a(F0.0133
F0.0708
tp523
a(F0.0093
F0.0758
tp524
a(F0.0113
F0.0658
tp525
a(F0.012299999999999998
F0.0708
tp526
a(F0.011300000000000001
F0.0708
tp527
a(F0.0123
F0.0708
tp528
a(F0.0113
F0.0758
tp529
a(F0.0133
F0.0658
tp530
a(F0.011300000000000001
F0.08080000000000001
tp531
a(F0.012299999999999998
F0.0758
tp532
a(F0.0113
F0.0608
tp533
a(F0.0123
F0.0608
tp534
a(F0.0093
F0.0708
tp535
a(F0.0133
F0.0758
tp536
a(F0.0123
F0.0658
tp537
a(F0.0093
F0.08080000000000001
tp538
a(F0.0103
F0.0608
tp539
a(F0.011300000000000001
F0.0658
tp540
a(F0.011300000000000001
F0.0758
tp541
a(F0.0103
F0.0758
tp542
a(F0.0103
F0.0658
tp543
a(F0.0103
F0.0708
tp544
a(F0.012299999999999998
F0.0658
tp545
a(F0.0113
F0.08080000000000001
tp546
a(F0.0103
F0.08080000000000001
tp547
ass.