(dp0
I0
(dp1
S'best_curve'
p2
cnumpy.core.multiarray
_reconstruct
p3
(cnumpy
ndarray
p4
(I0
tp5
S'b'
p6
tp7
Rp8
(I1
(L13L
tp9
cnumpy
dtype
p10
(S'f8'
p11
I0
I1
tp12
Rp13
(I3
S'<'
p14
NNNI-1
I-1
I0
tp15
bI00
S'\x9fB\xbc\xd0\xda\xd2h@\xe1\xaf\xc2\xc0l\x10r@\xedt\x96h$r{@\xd7\xaf\x9d\x96h\xd7\x83@\x9a-?\x92\xa0e\x8a@\x1b\x90\x16Q\xfa\xf9\x8f@\xe5e\xbb\xfd]\xc4\x92@%A\xfc/\xfb/\x94@\xf0\xdc\x86\xd3\xa8\xa2\x94@-\r\xa9$\xbd\xd0\x95@g\xc7[C!\xd9\x95@\x9fkZ\xaa\xb4\xf4\x94@\xb9\x97\x0cn^@\x93@'
p16
tp17
bsS'pq0'
p18
(lp19
cnumpy.core.multiarray
scalar
p20
(g13
S'\xc9\x1f\x91\xe8\re~?'
p21
tp22
Rp23
ag20
(g13
S'\x87m\x94\xa9(E\xa3?'
p24
tp25
Rp26
asS'steps'
p27
I20
sS'params'
p28
(F0.0074
F0.0426
g20
(g13
S'\x02J\xd4\xf0%\xc3\xd6@'
p29
tp30
Rp31
tp32
sS'fitness'
p33
g20
(g13
S'y\x95\xf8\xdc\x82\xf5\xed?'
p34
tp35
Rp36
sS'path'
p37
(lp38
(F0.008400000000000001
F0.047599999999999996
tp39
a(F0.0054
F0.052599999999999994
tp40
a(F0.0064
F0.0326
tp41
a(F0.0074
F0.0376
tp42
a(F0.0084
F0.0376
tp43
a(F0.0054
F0.0376
tp44
a(F0.0064
F0.047599999999999996
tp45
a(F0.0074
F0.0326
tp46
a(F0.008400000000000001
F0.0426
tp47
a(F0.0074
F0.047599999999999996
tp48
a(F0.0054
F0.047599999999999996
tp49
a(F0.0064
F0.0376
tp50
a(F0.0074
F0.0426
tp51
a(F0.0084
F0.0426
tp52
a(F0.0064
F0.052599999999999994
tp53
a(F0.008400000000000001
F0.0376
tp54
a(F0.0084
F0.0326
tp55
a(F0.0074
F0.052599999999999994
tp56
a(F0.0054
F0.0426
tp57
a(F0.0064
F0.0426
tp58
assI1
(dp59
g2
g3
(g4
(I0
tp60
g6
tp61
Rp62
(I1
(L13L
tp63
g13
I00
S'\xf5\xdai[E\x0fg@\xc1|\xbc?\x9cCp@\xd0~\x9fP\xf5\xedz@\xaa\x1f\xe8\xcd\x82,\x84@\xd5q\xc1%\x8ay\x8b@\xfc[\xe3\xdc\xf7\xa3\x91@&#b\xf2\x0f\x07\x94@F\x04\x9d]\xfeR\x95@\x10\x02\xdb\x17\xd3j\x95@\xf2\x88\xe3B\xc7 \x95@\xf5\x16\xb7\xf2!\x8a\x94@L3\x0c\xcaoY\x93@\n\xd3\xef\xa7$\x04\x92@'
p64
tp65
bsg18
(lp66
g20
(g13
S"\x06\xbd]F'\x81|?"
p67
tp68
Rp69
ag20
(g13
S'\x9b\xb6\n\x13\xdd\x01\xa3?'
p70
tp71
Rp72
asg27
I22
sg28
(F0.007
F0.047099999999999996
g20
(g13
S'B\x11{\x88i\xc7\xd4@'
p73
tp74
Rp75
tp76
sg33
g20
(g13
S'\x17\xfa\xe00;\xf1\xed?'
p77
tp78
Rp79
sg37
(lp80
(F0.009000000000000001
F0.0371
tp81
a(F0.008
F0.047099999999999996
tp82
a(F0.007
F0.0371
tp83
a(F0.005
F0.0421
tp84
a(F0.008
F0.0321
tp85
a(F0.005
F0.0371
tp86
a(F0.007
F0.0321
tp87
a(F0.009000000000000001
F0.047099999999999996
tp88
a(F0.008
F0.052099999999999994
tp89
a(F0.006
F0.0421
tp90
a(F0.008
F0.0371
tp91
a(F0.007
F0.052099999999999994
tp92
a(F0.007
F0.047099999999999996
tp93
a(F0.009000000000000001
F0.0421
tp94
a(F0.009000000000000001
F0.052099999999999994
tp95
a(F0.006
F0.047099999999999996
tp96
a(F0.007
F0.0421
tp97
a(F0.006
F0.0321
tp98
a(F0.006
F0.052099999999999994
tp99
a(F0.005
F0.047099999999999996
tp100
a(F0.006
F0.0371
tp101
a(F0.008
F0.0421
tp102
assI2
(dp103
g2
g3
(g4
(I0
tp104
g6
tp105
Rp106
(I1
(L13L
tp107
g13
I00
S"\xc5-l\xbb\xea\x15i@\x07\xce\xbf\xb8\x9e$r@\xe2\x1f'\xc8\x13[z@\x19\xba3\x1d\xf7*\x83@\xe4/4>\xb8\x16\x8a@\xa4\x92]\xe7\xde0\x90@B\x99&\x107r\x92@\xc1c:\x86\x00\x03\x95@W6\xbd\xe7\xbfN\x95@\x9a\x0cN\xce\x92\x99\x95@\xe1\x02\xf9\xa0\xae[\x95@\xebB-y@J\x94@g\x96\x0b\xac\x9a\xb4\x93@"
p108
tp109
bsg18
(lp110
g20
(g13
S'\xbfD\x8c+A\xac\x80?'
p111
tp112
Rp113
ag20
(g13
S'\xba\x1c\xe3\xf4%\x8b\xa3?'
p114
tp115
Rp116
asg27
I27
sg28
(F0.0070999999999999995
F0.043199999999999995
g20
(g13
S'0B\xda\x97q\x8d\xd6@'
p117
tp118
Rp119
tp120
sg33
g20
(g13
S'<X$\x9b?\x16\xee?'
p121
tp122
Rp123
sg37
(lp124
(F0.0071
F0.0332
tp125
a(F0.0081
F0.0382
tp126
a(F0.0091
F0.0382
tp127
a(F0.0081
F0.043199999999999995
tp128
a(F0.0070999999999999995
F0.04819999999999999
tp129
a(F0.0060999999999999995
F0.043199999999999995
tp130
a(F0.0070999999999999995
F0.0332
tp131
a(F0.0081
F0.04819999999999999
tp132
a(F0.0060999999999999995
F0.04819999999999999
tp133
a(F0.0091
F0.043199999999999995
tp134
a(F0.0081
F0.0482
tp135
a(F0.0091
F0.0432
tp136
a(F0.0070999999999999995
F0.043199999999999995
tp137
a(F0.0061
F0.038200000000000005
tp138
a(F0.0081
F0.038200000000000005
tp139
a(F0.0081
F0.0432
tp140
a(F0.0081
F0.0332
tp141
a(F0.0060999999999999995
F0.0382
tp142
a(F0.0071
F0.038200000000000005
tp143
a(F0.0061
F0.0482
tp144
a(F0.0071
F0.0482
tp145
a(F0.0061
F0.0432
tp146
a(F0.0071
F0.0432
tp147
a(F0.0091
F0.0332
tp148
a(F0.0091
F0.04819999999999999
tp149
a(F0.0070999999999999995
F0.0382
tp150
a(F0.0071
F0.0382
tp151
assI3
(dp152
g2
g3
(g4
(I0
tp153
g6
tp154
Rp155
(I1
(L13L
tp156
g13
I00
S"1J\xaa\x9b\xbc\x11e@\xdf\xa4\xb2\xb1\xd4\xa5l@2\xd861\xf1\x0by@#\x1f\xffA\xdd3\x84@\xd2\x9e\x8a\x9a\x86\xed\x8a@i\x02U%\x89\x96\x90@p'\xd7\x84\xb1&\x93@\x8f[\xe9L~u\x95@y*\xc0D`&\x95@\xc9\rj\xf9*\x17\x96@f\x8d\xa2c\x1e\xd8\x94@\xd3\xf1\xf9Sh\xd4\x93@\xa0\xb1\xeb.\x1e\xa3\x92@"
p157
tp158
bsg18
(lp159
g20
(g13
S'\xd7\x1e\xdd\xea.Z~?'
p160
tp161
Rp162
ag20
(g13
S'Ge2\xcf\x08-\xa3?'
p163
tp164
Rp165
asg27
I29
sg28
(F0.0064
F0.0475
g20
(g13
S'\xee\x91\xab@\xd1\xfe\xd4@'
p166
tp167
Rp168
tp169
sg33
g20
(g13
S'\x9fx|\xf1\x11\x04\xee?'
p170
tp171
Rp172
sg37
(lp173
(F0.0064
F0.0375
tp174
a(F0.0074
F0.0425
tp175
a(F0.0054
F0.0525
tp176
a(F0.0074
F0.0475
tp177
a(F0.008400000000000001
F0.0425
tp178
a(F0.008400000000000001
F0.037500000000000006
tp179
a(F0.0074
F0.0325
tp180
a(F0.0073999999999999995
F0.0425
tp181
a(F0.0064
F0.0525
tp182
a(F0.0084
F0.0375
tp183
a(F0.0054
F0.0475
tp184
a(F0.0084
F0.0325
tp185
a(F0.0064
F0.0475
tp186
a(F0.0073999999999999995
F0.037500000000000006
tp187
a(F0.009399999999999999
F0.0425
tp188
a(F0.0074
F0.0525
tp189
a(F0.0064
F0.0425
tp190
a(F0.0073999999999999995
F0.0475
tp191
a(F0.008400000000000001
F0.0475
tp192
a(F0.0084
F0.037500000000000006
tp193
a(F0.0074
F0.0375
tp194
a(F0.0054
F0.0425
tp195
a(F0.009399999999999999
F0.037500000000000006
tp196
a(F0.0084
F0.0475
tp197
a(F0.0074
F0.037500000000000006
tp198
a(F0.0064
F0.037500000000000006
tp199
a(F0.0084
F0.0425
tp200
a(F0.009399999999999999
F0.0475
tp201
a(F0.0064
F0.0325
tp202
assI4
(dp203
g2
g3
(g4
(I0
tp204
g6
tp205
Rp206
(I1
(L13L
tp207
g13
I00
S"(\xaa1\xd0\xde\x93d@u;\xca\xf5y\xecm@\xad\xd40\x13\x94\x1ex@\xf1c\x8b\xe5\r\xc5\x81@\x91=\x12k5\xe2\x89@\x13\xed\x81\x02\x03\xa0\x90@G\x8a\xffN\x19\x86\x93@)\xfatlo\xfa\x94@\x97\\\x14\xdc\xca\n\x96@\xce\x16\x86\xf9\x91\xae\x95@\x05\xd1\xf7\x16YR\x95@\xdb\xbeD\xb2E'\x94@M\x8e\x1b\x8f\xe2[\x92@"
p208
tp209
bsg18
(lp210
g20
(g13
S'$(\x9a\xf7Q\x7f\x80?'
p211
tp212
Rp213
ag20
(g13
S'=\xd3\xe2)\xeck\xa3?'
p214
tp215
Rp216
asg27
I28
sg28
(F0.0061
F0.0479
g20
(g13
S'\xac\x9f\xd3\xa7\xcf\n\xd5@'
p217
tp218
Rp219
tp220
sg33
g20
(g13
S'\x83\x85m\xbbh\x01\xee?'
p221
tp222
Rp223
sg37
(lp224
(F0.0061
F0.052899999999999996
tp225
a(F0.0070999999999999995
F0.0429
tp226
a(F0.0091
F0.0429
tp227
a(F0.0071
F0.0379
tp228
a(F0.0081
F0.0479
tp229
a(F0.0091
F0.0379
tp230
a(F0.0041
F0.0479
tp231
a(F0.0051
F0.0479
tp232
a(F0.0081
F0.0329
tp233
a(F0.0061
F0.0429
tp234
a(F0.0070999999999999995
F0.0479
tp235
a(F0.0071
F0.052899999999999996
tp236
a(F0.0091
F0.0479
tp237
a(F0.0071
F0.0429
tp238
a(F0.0071
F0.0329
tp239
a(F0.0041
F0.05789999999999999
tp240
a(F0.0041
F0.052899999999999996
tp241
a(F0.0070999999999999995
F0.0379
tp242
a(F0.0051
F0.052899999999999996
tp243
a(F0.0071
F0.0479
tp244
a(F0.0091
F0.0329
tp245
a(F0.0081
F0.0379
tp246
a(F0.0061
F0.05789999999999999
tp247
a(F0.0061
F0.0379
tp248
a(F0.0061
F0.0479
tp249
a(F0.0051
F0.0429
tp250
a(F0.0051
F0.05789999999999999
tp251
a(F0.0081
F0.0429
tp252
assI5
(dp253
g2
g3
(g4
(I0
tp254
g6
tp255
Rp256
(I1
(L13L
tp257
g13
I00
S'\xf6x\x9dRh\xb0g@\x03\xdd\x15\xb5\x01\x84q@6>\xc9\x1e\xd3-{@\x1b{ \x14\x83\xae\x84@\xf9\xbb\xdd\x8eRY\x8c@.\xc0\x9dSY\x85\x90@\xeb\xed\xd3\x81\xf0r\x93@5\xdd\xe6Q\xcd0\x95@\x82\xe5\x97z\x90c\x95@\xe7@\xbe\x18\x90n\x95@\xf7-\x08i#^\x94@\xc6\x1b\x95\x8e$=\x94@\xb0\xd2l\xa9\xc0/\x92@'
p258
tp259
bsg18
(lp260
g20
(g13
S'\xa0Dv7\x13\xd0~?'
p261
tp262
Rp263
ag20
(g13
S'dy\xd0\x1d\xf20\xa3?'
p264
tp265
Rp266
asg27
I24
sg28
(F0.0075
F0.0475
g20
(g13
S'g\xe0\x08d\xbe\xa7\xd4@'
p267
tp268
Rp269
tp270
sg33
g20
(g13
S'\xf9\x81\xfb\x0cf\xf9\xed?'
p271
tp272
Rp273
sg37
(lp274
(F0.0065
F0.0375
tp275
a(F0.0075
F0.0525
tp276
a(F0.0065
F0.0425
tp277
a(F0.009500000000000001
F0.0425
tp278
a(F0.0065
F0.0325
tp279
a(F0.0075
F0.0375
tp280
a(F0.0075
F0.0325
tp281
a(F0.0085
F0.0475
tp282
a(F0.0085
F0.0525
tp283
a(F0.0085
F0.037500000000000006
tp284
a(F0.007500000000000001
F0.037500000000000006
tp285
a(F0.0075
F0.0475
tp286
a(F0.0085
F0.0375
tp287
a(F0.009500000000000001
F0.037500000000000006
tp288
a(F0.007500000000000001
F0.0425
tp289
a(F0.0065
F0.0475
tp290
a(F0.0075
F0.0425
tp291
a(F0.009500000000000001
F0.0475
tp292
a(F0.0075
F0.037500000000000006
tp293
a(F0.0065
F0.0525
tp294
a(F0.0065
F0.037500000000000006
tp295
a(F0.0085
F0.0425
tp296
a(F0.007500000000000001
F0.0475
tp297
a(F0.0085
F0.0325
tp298
assI6
(dp299
g2
g3
(g4
(I0
tp300
g6
tp301
Rp302
(I1
(L13L
tp303
g13
I00
S'.\xbe\xaau\xf0\xc3c@\xb9\x17\xaaq\xd8Jp@\x13ux\xd5\xaa\xb4y@\xf7\x96\x11\xc4O\n\x84@\x91\xc6q\x00\x11\xf9\x8a@>K\xa2XP\xdf\x90@\x00Ul\xea\xb3\x03\x93@\xfa\xf7^@\x80\x8c\x95@V\xec_\x83(^\x95@\x9f\x03^\xfd\xd7\xba\x95@\xc8d\xd9\xcd\xd6\xce\x94@.\xbe\xaau\xf0\xc3\x93@\x1a\x03,\xd9&\xa0\x92@'
p304
tp305
bsg18
(lp306
g20
(g13
S"\xb2\xe6r'\x1f\x06\x80?"
p307
tp308
Rp309
ag20
(g13
S'\xabz\x9f\xa33\x1e\xa3?'
p310
tp311
Rp312
asg27
I21
sg28
(F0.0068
F0.047299999999999995
g20
(g13
S'\xd4_\xdd\xda\xbd\xf3\xd4@'
p313
tp314
Rp315
tp316
sg33
g20
(g13
S'-\xdc\x86\x94\xb3\x12\xee?'
p317
tp318
Rp319
sg37
(lp320
(F0.008799999999999999
F0.0423
tp321
a(F0.0058
F0.05229999999999999
tp322
a(F0.0078
F0.0373
tp323
a(F0.008799999999999999
F0.047299999999999995
tp324
a(F0.008799999999999999
F0.0323
tp325
a(F0.0068
F0.0373
tp326
a(F0.0068
F0.05229999999999999
tp327
a(F0.0078
F0.0323
tp328
a(F0.0088
F0.0323
tp329
a(F0.0088
F0.0373
tp330
a(F0.0088
F0.0423
tp331
a(F0.0068
F0.0423
tp332
a(F0.0078
F0.047299999999999995
tp333
a(F0.008799999999999999
F0.0373
tp334
a(F0.0078
F0.0423
tp335
a(F0.0058
F0.047299999999999995
tp336
a(F0.008799999999999999
F0.05229999999999999
tp337
a(F0.0068
F0.0323
tp338
a(F0.0058
F0.0423
tp339
a(F0.0068
F0.047299999999999995
tp340
a(F0.0078
F0.05229999999999999
tp341
assI7
(dp342
g2
g3
(g4
(I0
tp343
g6
tp344
Rp345
(I1
(L13L
tp346
g13
I00
S"\xd1/\xc5VW\xb8f@\xe0\x95#\xf8n|q@\xdd9Y\xeb\n${@\xbfQW\x15\x19\x99\x83@*\xa5\r\x01\x81\x8f\x8b@\x14\x8ci\xebf\xda\x90@2-\x9a\x1c\xa8\xe4\x93@r\xc4\xa6\xa7lD\x95@\xf8\xd7\xb0'\x08\x80\x95@\xc0/[\xbd\xe2\xaf\x95@\x0f\xd3l\xb2\xf0\x02\x95@\xbfQW\x15\x19\x99\x93@\x95\xdc~Y&\x83\x91@"
p347
tp348
bsg18
(lp349
g20
(g13
S'\x1b6\x88}LR\x80?'
p350
tp351
Rp352
ag20
(g13
S'\xbf\xb03`@W\xa3?'
p353
tp354
Rp355
asg27
I20
sg28
(F0.008
F0.047799999999999995
g20
(g13
S'r\x87\xcd\xdb!\x7f\xd4@'
p356
tp357
Rp358
tp359
sg33
g20
(g13
S'\x8e-\xda\xf4\xad\x10\xee?'
p360
tp361
Rp362
sg37
(lp363
(F0.006
F0.047799999999999995
tp364
a(F0.007
F0.05279999999999999
tp365
a(F0.009000000000000001
F0.0378
tp366
a(F0.008
F0.0378
tp367
a(F0.008
F0.047799999999999995
tp368
a(F0.007
F0.047799999999999995
tp369
a(F0.006
F0.0378
tp370
a(F0.008
F0.0428
tp371
a(F0.008
F0.05279999999999999
tp372
a(F0.009000000000000001
F0.0428
tp373
a(F0.009
F0.0428
tp374
a(F0.009
F0.0328
tp375
a(F0.006
F0.0428
tp376
a(F0.009000000000000001
F0.05279999999999999
tp377
a(F0.008
F0.0328
tp378
a(F0.009
F0.0378
tp379
a(F0.009000000000000001
F0.047799999999999995
tp380
a(F0.007
F0.0428
tp381
a(F0.007
F0.0328
tp382
a(F0.007
F0.0378
tp383
assI8
(dp384
g2
g3
(g4
(I0
tp385
g6
tp386
Rp387
(I1
(L13L
tp388
g13
I00
S'b\x1a\xb5\xccpdf@\xf2\x9aP\x9bT\xb0n@Fc\xca\xfeu@y@/\xae\xa9\xb0@\xba\x83@\xf29r\x18\xe1\xa5\x8a@\x1c|Z\x90\xa3\x98\x90@v\x8bm\x06\xd0<\x93@pfI]v|\x95@_\x98\t\xbe\x81\xcb\x95@\xd6\xc0\xcaD\xffl\x95@\xc3\xaf\x89\x0f\xa4\xd6\x94@Q+gB:(\x94@\x11s\xc7\x95\x04f\x92@'
p389
tp390
bsg18
(lp391
g20
(g13
S'\\5\xad\x90\xb7"\x80?'
p392
tp393
Rp394
ag20
(g13
S'A=\xd42\xb1\xf3\xa2?'
p395
tp396
Rp397
asg27
I32
sg28
(F0.006900000000000001
F0.047
g20
(g13
S'\xd8a8\x00\xde\xf9\xd4@'
p398
tp399
Rp400
tp401
sg33
g20
(g13
S'l@\x06[9$\xee?'
p402
tp403
Rp404
sg37
(lp405
(F0.006900000000000001
F0.047
tp406
a(F0.0089
F0.037
tp407
a(F0.008900000000000002
F0.042
tp408
a(F0.0089
F0.032
tp409
a(F0.0049
F0.052
tp410
a(F0.0069
F0.037
tp411
a(F0.0069
F0.032
tp412
a(F0.0079
F0.052
tp413
a(F0.0089
F0.042
tp414
a(F0.0049
F0.042
tp415
a(F0.0059
F0.052
tp416
a(F0.0069
F0.042
tp417
a(F0.006900000000000001
F0.037000000000000005
tp418
a(F0.0049
F0.047
tp419
a(F0.0059
F0.047
tp420
a(F0.0079
F0.032
tp421
a(F0.0059
F0.037000000000000005
tp422
a(F0.0059
F0.042
tp423
a(F0.0079
F0.037000000000000005
tp424
a(F0.005900000000000001
F0.047
tp425
a(F0.0079
F0.047
tp426
a(F0.008900000000000002
F0.037000000000000005
tp427
a(F0.005900000000000001
F0.042
tp428
a(F0.006900000000000001
F0.042
tp429
a(F0.006900000000000001
F0.052
tp430
a(F0.005900000000000001
F0.052
tp431
a(F0.0069
F0.047
tp432
a(F0.0079
F0.037
tp433
a(F0.0069
F0.037000000000000005
tp434
a(F0.008900000000000002
F0.047
tp435
a(F0.0079
F0.042
tp436
a(F0.0069
F0.052
tp437
assI9
(dp438
g2
g3
(g4
(I0
tp439
g6
tp440
Rp441
(I1
(L13L
tp442
g13
I00
S'8\xfd\xb0\x94yQj@\x08d\xa9H:Iq@i\xfbH/q\xe4y@1\xf3\xee\xaa\xe7\xcf\x83@C9^\xae3\xe8\x89@\xc5)a\xb6\x96\n\x90@xi\xe1xS\x90\x92@\t\x1a\x1f\xb7T\xa4\x94@\xb6\xc4\xca\xab\xfaU\x95@se\xbdP\xe4\xc4\x95@\x7f\xa1jj\x9e[\x95@ \x19k\x84\xd0m\x94@\xc8J\x055\x8c\xa6\x93@'
p443
tp444
bsg18
(lp445
g20
(g13
S'\xe7\x04\xe2L\xde\xe0\x7f?'
p446
tp447
Rp448
ag20
(g13
S'\xf1^\x8d\xde7\xf5\xa2?'
p449
tp450
Rp451
asg27
I19
sg28
(F0.0078
F0.042
g20
(g13
S'\\\t&\xa7\x9c\xf2\xd6@'
p452
tp453
Rp454
tp455
sg33
g20
(g13
S'\xe3\xb4\xfc\xf8\xf2\xf7\xed?'
p456
tp457
Rp458
sg37
(lp459
(F0.0078
F0.037000000000000005
tp460
a(F0.008799999999999999
F0.042
tp461
a(F0.0058
F0.047
tp462
a(F0.0088
F0.037
tp463
a(F0.0068
F0.037000000000000005
tp464
a(F0.0078
F0.047
tp465
a(F0.008799999999999999
F0.037000000000000005
tp466
a(F0.0078
F0.037
tp467
a(F0.0088
F0.042
tp468
a(F0.0088
F0.032
tp469
a(F0.0068
F0.042
tp470
a(F0.008799999999999999
F0.047
tp471
a(F0.0078
F0.032
tp472
a(F0.0058
F0.042
tp473
a(F0.0068
F0.032
tp474
a(F0.0058
F0.037000000000000005
tp475
a(F0.0078
F0.042
tp476
a(F0.0068
F0.047
tp477
a(F0.0068
F0.037
tp478
ass.