(dp0
I0
(dp1
S'best_curve'
p2
cnumpy.core.multiarray
_reconstruct
p3
(cnumpy
ndarray
p4
(I0
tp5
S'b'
p6
tp7
Rp8
(I1
(L13L
tp9
cnumpy
dtype
p10
(S'f8'
p11
I0
I1
tp12
Rp13
(I3
S'<'
p14
NNNI-1
I-1
I0
tp15
bI00
S'h\x15\x1d\xc3\xe2\x19W@\xf9a\xf2\n\x12\xdde@\x08x\xbcG\xb9=s@\xf4:\x91\xb2\x94\xed\x80@\xb8\x8e\xb5$\xd0u\x8a@j+\xf3\x909-\x92@M\x80Xc\r\xb4\x96@\x1c\xf5\xb7A\xf3\xff\x99@|Y\xc7\xc6\xd1\xf9\x9a@\xe1GB\x9e\xe1[\x9b@;\x93\xee\xa7\xd7\x85\x9a@Snh\xc5?\xc1\x98@\xf3\xac3\x9f*\xb2\x96@'
p16
tp17
bsS'pq0'
p18
(lp19
cnumpy.core.multiarray
scalar
p20
(g13
S'\xc0]\to\xb8\xbap?'
p21
tp22
Rp23
ag20
(g13
S'D#x\xd7\xf2\xec\xa5?'
p24
tp25
Rp26
asS'steps'
p27
I39
sS'params'
p28
(F0.0031000000000000003
F0.05779999999999999
g20
(g13
S'\x83\x00\x88U$\x05\xd7@'
p29
tp30
Rp31
tp32
sS'fitness'
p33
g20
(g13
S'\x93U\xd3\x0b\xfc\xe6\xee?'
p34
tp35
Rp36
sS'path'
p37
(lp38
(F0.0021000000000000003
F0.0628
tp39
a(F0.0021000000000000003
F0.05279999999999999
tp40
a(F0.0061
F0.05279999999999999
tp41
a(F0.0041
F0.0528
tp42
a(F0.0061
F0.0528
tp43
a(F0.0051
F0.0428
tp44
a(F0.0041
F0.042800000000000005
tp45
a(F0.0041
F0.0578
tp46
a(F0.0031000000000000003
F0.05779999999999999
tp47
a(F0.0041
F0.0478
tp48
a(F0.0041
F0.05279999999999999
tp49
a(F0.0041
F0.0428
tp50
a(F0.0041
F0.0628
tp51
a(F0.0041
F0.047799999999999995
tp52
a(F0.0041
F0.0378
tp53
a(F0.0031000000000000003
F0.0628
tp54
a(F0.0031000000000000003
F0.05279999999999999
tp55
a(F0.0051
F0.05279999999999999
tp56
a(F0.0051
F0.042800000000000005
tp57
a(F0.0031000000000000003
F0.0528
tp58
a(F0.0051
F0.047799999999999995
tp59
a(F0.0031000000000000003
F0.0578
tp60
a(F0.0061
F0.047799999999999995
tp61
a(F0.0051
F0.0528
tp62
a(F0.0051
F0.0378
tp63
a(F0.0041
F0.05779999999999999
tp64
a(F0.0061
F0.042800000000000005
tp65
a(F0.0051
F0.0578
tp66
a(F0.0021000000000000003
F0.05779999999999999
tp67
a(F0.0061
F0.0428
tp68
a(F0.0031000000000000003
F0.047799999999999995
tp69
a(F0.0051
F0.05779999999999999
tp70
a(F0.0031
F0.0428
tp71
a(F0.0031000000000000003
F0.0478
tp72
a(F0.0031
F0.0378
tp73
a(F0.0061
F0.0378
tp74
a(F0.0061
F0.0478
tp75
a(F0.0031
F0.0478
tp76
a(F0.0051
F0.0478
tp77
assI1
(dp78
g2
g3
(g4
(I0
tp79
g6
tp80
Rp81
(I1
(L13L
tp82
g13
I00
S'\xbe\x0b\xe1\xc9\xfc\xe1e@!\x9d1\xa6\xb1=n@\t\x05+\xd2\xf3\xa7v@J8\x06\xd0\xe4_\x81@\xcd5\x19i\xfc\x14\x8b@\xac}\xdf\x95\x03\x8a\x91@\x7f\xce\xc6\x95\xeb\xb8\x95@\x96\xc0\x91^\xde5\x99@[\x13\x11\xaaj\x07\x9a@\x96\x93/\xe4CB\x9b@fv\x0e\x19\x12\xdb\x9a@\xfb&jI\x8a\xa6\x99@R\xf3\xdd\xaa/\x12\x98@'
p83
tp84
bsg18
(lp85
g20
(g13
S'\xaa\xc5m\xac\xcb\x8ft?'
p86
tp87
Rp88
ag20
(g13
S'EA\xff\xd3&h\xa6?'
p89
tp90
Rp91
asg27
I34
sg28
(F0.005
F0.048799999999999996
g20
(g13
S'\xdd\x98\xdcAH\xb5\xd9@'
p92
tp93
Rp94
tp95
sg33
g20
(g13
S"'R@\xf8\x8e\xda\xee?"
p96
tp97
Rp98
sg37
(lp99
(F0.005
F0.048799999999999996
tp100
a(F0.004
F0.0588
tp101
a(F0.004
F0.0438
tp102
a(F0.003
F0.0588
tp103
a(F0.005
F0.0588
tp104
a(F0.005
F0.0538
tp105
a(F0.004
F0.0388
tp106
a(F0.003
F0.0488
tp107
a(F0.005
F0.0488
tp108
a(F0.004
F0.048799999999999996
tp109
a(F0.007
F0.0438
tp110
a(F0.004
F0.043800000000000006
tp111
a(F0.005
F0.05879999999999999
tp112
a(F0.004
F0.0488
tp113
a(F0.004
F0.05879999999999999
tp114
a(F0.007
F0.0388
tp115
a(F0.007
F0.048799999999999996
tp116
a(F0.004
F0.0538
tp117
a(F0.003
F0.05879999999999999
tp118
a(F0.004
F0.053799999999999994
tp119
a(F0.005
F0.0438
tp120
a(F0.006
F0.0388
tp121
a(F0.005
F0.053799999999999994
tp122
a(F0.006
F0.043800000000000006
tp123
a(F0.006
F0.0438
tp124
a(F0.005
F0.043800000000000006
tp125
a(F0.006
F0.0538
tp126
a(F0.006
F0.048799999999999996
tp127
a(F0.005
F0.0388
tp128
a(F0.006
F0.053799999999999994
tp129
a(F0.003
F0.0538
tp130
a(F0.003
F0.048799999999999996
tp131
a(F0.003
F0.053799999999999994
tp132
a(F0.006
F0.0488
tp133
assI2
(dp134
g2
g3
(g4
(I0
tp135
g6
tp136
Rp137
(I1
(L13L
tp138
g13
I00
S'\xf0\x03\x1a\xa3\xbciX@\xe9Q2\x8b;]d@\xb5\x0445\x0fss@L\xfd\xa4\x00__\x81@\xbcw\x17$\xff\xc8\x89@\x048\xce!\x1a\xc5\x91@\xcd\xb5\xe5r\xe8\x11\x96@\x8a\xe0\xc9OG\xc2\x99@\xb8\x15\xd0\xf0\xa1\xef\x9a@k\xd7\xea\xae\x9c7\x9b@\xcc7\xdd \xc6\xa4\x9a@mw\x05\x86\x1cO\x99@\x15\xe7\x1dU\x16s\x97@'
p139
tp140
bsg18
(lp141
g20
(g13
S'2\xceZ\x82sPt?'
p142
tp143
Rp144
ag20
(g13
S'"\x8a\x03\xcbN\x8d\xa5?'
p145
tp146
Rp147
asg27
I28
sg28
(F0.003
F0.0571
g20
(g13
S'_\r\x0b\xe2In\xd7@'
p148
tp149
Rp150
tp151
sg33
g20
(g13
S'\xf1B\xaflF\xdc\xee?'
p152
tp153
Rp154
sg37
(lp155
(F0.005
F0.0521
tp156
a(F0.002
F0.062099999999999995
tp157
a(F0.004
F0.0471
tp158
a(F0.004
F0.0571
tp159
a(F0.005
F0.0421
tp160
a(F0.005
F0.042100000000000005
tp161
a(F0.002
F0.0521
tp162
a(F0.004
F0.0521
tp163
a(F0.004
F0.062099999999999995
tp164
a(F0.006
F0.042100000000000005
tp165
a(F0.004
F0.0371
tp166
a(F0.006
F0.0421
tp167
a(F0.007
F0.0471
tp168
a(F0.003
F0.062099999999999995
tp169
a(F0.002
F0.0571
tp170
a(F0.005
F0.0371
tp171
a(F0.003
F0.0471
tp172
a(F0.007
F0.042100000000000005
tp173
a(F0.005
F0.0571
tp174
a(F0.004
F0.0421
tp175
a(F0.007
F0.0521
tp176
a(F0.003
F0.0521
tp177
a(F0.005
F0.0471
tp178
a(F0.006
F0.0371
tp179
a(F0.004
F0.042100000000000005
tp180
a(F0.006
F0.0521
tp181
a(F0.003
F0.0571
tp182
a(F0.006
F0.0471
tp183
assI3
(dp184
g2
g3
(g4
(I0
tp185
g6
tp186
Rp187
(I1
(L13L
tp188
g13
I00
S'\x00\xeb\xc5]:\x9eU@\x86\x96+\x8c"\xeb`@,\xe8\xfa\x01v\xa7p@\x96\x1f"\x03\x98&~@\xcc\xa8\xa6\x8e\x1ed\x8a@\x9c4_T\xdc\x8b\x91@sh\xb5h\x87t\x96@+U\\\x87@\xd5\x99@\xc4H\x0b\xaf\xdbR\x9b@\xd6Q"\xbcVK\x9b@*:\xab\xd2\xdd\xf4\x9a@@\xdd\xb5Kvd\x99@\xf2(\x14\r*\xa9\x96@'
p189
tp190
bsg18
(lp191
g20
(g13
S'\x8d_\xd1R5vt?'
p192
tp193
Rp194
ag20
(g13
S'\xd8\xf4\xf2\xa7\xbe(\xa6?'
p195
tp196
Rp197
asg27
I30
sg28
(F0.003
F0.0583
g20
(g13
S'~\x90sMz\xf2\xd6@'
p198
tp199
Rp200
tp201
sg33
g20
(g13
S'\xd1\xc4\xc2M\x8b\xf2\xee?'
p202
tp203
Rp204
sg37
(lp205
(F0.004
F0.0533
tp206
a(F0.002
F0.0533
tp207
a(F0.002
F0.0483
tp208
a(F0.005
F0.0433
tp209
a(F0.003
F0.0633
tp210
a(F0.006
F0.048299999999999996
tp211
a(F0.006
F0.0383
tp212
a(F0.005
F0.0533
tp213
a(F0.006
F0.0433
tp214
a(F0.004
F0.0433
tp215
a(F0.003
F0.0583
tp216
a(F0.003
F0.043300000000000005
tp217
a(F0.005
F0.0483
tp218
a(F0.003
F0.0483
tp219
a(F0.005
F0.0383
tp220
a(F0.003
F0.0533
tp221
a(F0.005
F0.048299999999999996
tp222
a(F0.004
F0.0583
tp223
a(F0.002
F0.0633
tp224
a(F0.005
F0.0583
tp225
a(F0.004
F0.0383
tp226
a(F0.007
F0.0433
tp227
a(F0.002
F0.0583
tp228
a(F0.004
F0.0633
tp229
a(F0.006
F0.0483
tp230
a(F0.004
F0.0483
tp231
a(F0.007
F0.0383
tp232
a(F0.007
F0.048299999999999996
tp233
a(F0.004
F0.043300000000000005
tp234
a(F0.005
F0.043300000000000005
tp235
assI4
(dp236
g2
g3
(g4
(I0
tp237
g6
tp238
Rp239
(I1
(L13L
tp240
g13
I00
S"ao\xb0r\x06\xd4U@L\xfd\xf0\xe7\xff\x0ce@\xe8\xdab\xbc3or@\xa6u\x0c\x1c-/\x80@\x05\xee}\xb4wW\x89@\x87\x87w=\x1e}\x91@\x18\xe0'\xe6\xf6\x9c\x96@\x16\x8b\x99\x1c6\xe2\x99@#\x96\x9c\xc9\xb89\x9b@M\xba\x902\x02\x07\x9b@\r\xdbPa\x14\xd9\x9a@\xef\xf8\xbdn(H\x99@\xfe\x92\xc3\xc2\x16\t\x97@"
p241
tp242
bsg18
(lp243
g20
(g13
S'\x84\x8b\xa7\xed%\x11u?'
p244
tp245
Rp246
ag20
(g13
S'`\xa9?\xf0B\x95\xa5?'
p247
tp248
Rp249
asg27
I26
sg28
(F0.0031000000000000003
F0.057199999999999994
g20
(g13
S'\xa3W\x07\xceU\\\xd7@'
p250
tp251
Rp252
tp253
sg33
g20
(g13
S'\x7f\xc1\x94e\xe6\xd1\xee?'
p254
tp255
Rp256
sg37
(lp257
(F0.0061
F0.0372
tp258
a(F0.0041
F0.06219999999999999
tp259
a(F0.0031000000000000003
F0.057199999999999994
tp260
a(F0.0051
F0.0372
tp261
a(F0.0061
F0.0422
tp262
a(F0.0051
F0.0472
tp263
a(F0.0051
F0.057199999999999994
tp264
a(F0.0021000000000000003
F0.057199999999999994
tp265
a(F0.0041
F0.0372
tp266
a(F0.0021000000000000003
F0.052199999999999996
tp267
a(F0.0041
F0.0472
tp268
a(F0.0061
F0.057199999999999994
tp269
a(F0.0051
F0.0422
tp270
a(F0.0071
F0.0422
tp271
a(F0.0021000000000000003
F0.06219999999999999
tp272
a(F0.0071
F0.052199999999999996
tp273
a(F0.0041
F0.0422
tp274
a(F0.0031000000000000003
F0.052199999999999996
tp275
a(F0.0041
F0.057199999999999994
tp276
a(F0.0041
F0.052199999999999996
tp277
a(F0.0061
F0.0472
tp278
a(F0.0031000000000000003
F0.0472
tp279
a(F0.0051
F0.052199999999999996
tp280
a(F0.0061
F0.052199999999999996
tp281
a(F0.0071
F0.0472
tp282
a(F0.0031000000000000003
F0.06219999999999999
tp283
assI5
(dp284
g2
g3
(g4
(I0
tp285
g6
tp286
Rp287
(I1
(L13L
tp288
g13
I00
S'\x1a\x94\xd3\xc9\xc0\xccT@"hM\xe3\xbd-a@\xaeguO\xe5\xd0q@\xb1F\xfc\xda\xdfu\x7f@\xe8\xed\xba\xf8\xc3i\x89@\xf2\x15q\xa2\xf05\x92@Gd\xa1\xfa\x8c\x98\x96@\xcd\x04\xae\x93\xf6\xf2\x99@\xe2&\xf1\xa8\x88\x1c\x9b@\xaf\xa6B\xe8\xe9c\x9b@\xd2\x0f\x8d\xd6\x84\xd0\x9a@dn\xd0\x15j\xbc\x98@\xd4)\xedi\x08\xf8\x96@'
p289
tp290
bsg18
(lp291
g20
(g13
S'\x96\xb4\xd6\x87z\xe9r?'
p292
tp293
Rp294
ag20
(g13
S'\x011\x07wV\x9c\xa6?'
p295
tp296
Rp297
asg27
I27
sg28
(F0.0026
F0.059199999999999996
g20
(g13
S'\xcc\x92\xc6 \xd2\xa1\xd6@'
p298
tp299
Rp300
tp301
sg33
g20
(g13
S'\x98a\xca\x14\xc0\xe6\xee?'
p302
tp303
Rp304
sg37
(lp305
(F0.0026
F0.059199999999999996
tp306
a(F0.0056
F0.0492
tp307
a(F0.0036
F0.0492
tp308
a(F0.0056
F0.0542
tp309
a(F0.0066
F0.0492
tp310
a(F0.0056
F0.039200000000000006
tp311
a(F0.0026
F0.0492
tp312
a(F0.0036
F0.0642
tp313
a(F0.0056
F0.0442
tp314
a(F0.0066
F0.039200000000000006
tp315
a(F0.0046
F0.0442
tp316
a(F0.0026
F0.0642
tp317
a(F0.0046
F0.0492
tp318
a(F0.0036
F0.0542
tp319
a(F0.0046
F0.039200000000000006
tp320
a(F0.0015999999999999999
F0.059199999999999996
tp321
a(F0.0015999999999999999
F0.0642
tp322
a(F0.0026
F0.0542
tp323
a(F0.0046
F0.0542
tp324
a(F0.0036
F0.059199999999999996
tp325
a(F0.0015999999999999999
F0.0542
tp326
a(F0.0056
F0.0392
tp327
a(F0.0046
F0.059199999999999996
tp328
a(F0.0036
F0.0442
tp329
a(F0.0046
F0.0392
tp330
a(F0.0066
F0.0442
tp331
a(F0.0036
F0.0392
tp332
assI6
(dp333
g2
g3
(g4
(I0
tp334
g6
tp335
Rp336
(I1
(L13L
tp337
g13
I00
S'\xf3\xb6v\xba\xcd\xfc[@\xd6t\xfa}]\xf5e@\xaf\xf8\xb9<\xbe{s@\xe4_\x0b&\xf48\x81@9\xef[>{\\\x8a@\x1d\xa7\xaa\x8e\xf2?\x92@.5\xf5\xb2\x02\xde\x95@@/U\xb6\xc2\xe3\x98@;\\hD\xd3\xf6\x9a@\x94f\xd8\x89\xa0+\x9b@ga \xe79\x11\x9b@\x17\x97\xa9\x19\xb4c\x99@d7]WI{\x97@'
p338
tp339
bsg18
(lp340
g20
(g13
S'\x8a"\xc3\xd9\x14Ks?'
p341
tp342
Rp343
ag20
(g13
S'\xdd\xa4y\x91\xa2\xc5\xa5?'
p344
tp345
Rp346
asg27
I24
sg28
(F0.0037
F0.0525
g20
(g13
S'\x96\x16.\x06`\xca\xd8@'
p347
tp348
Rp349
tp350
sg33
g20
(g13
S'\xb6\xedK\xc3\x8d\xda\xee?'
p351
tp352
Rp353
sg37
(lp354
(F0.0037
F0.057499999999999996
tp355
a(F0.0027
F0.0525
tp356
a(F0.0037
F0.0475
tp357
a(F0.0067
F0.0525
tp358
a(F0.0047
F0.057499999999999996
tp359
a(F0.0057
F0.0425
tp360
a(F0.0047
F0.0525
tp361
a(F0.0037
F0.0425
tp362
a(F0.0027
F0.0475
tp363
a(F0.0037
F0.06249999999999999
tp364
a(F0.0057
F0.0375
tp365
a(F0.0057
F0.0525
tp366
a(F0.0037
F0.0375
tp367
a(F0.0047
F0.0425
tp368
a(F0.0057
F0.0475
tp369
a(F0.0037
F0.0525
tp370
a(F0.0047
F0.06249999999999999
tp371
a(F0.0027
F0.057499999999999996
tp372
a(F0.0047
F0.0375
tp373
a(F0.0027
F0.06249999999999999
tp374
a(F0.0067
F0.0425
tp375
a(F0.0047
F0.0475
tp376
a(F0.0057
F0.057499999999999996
tp377
a(F0.0067
F0.0475
tp378
assI7
(dp379
g2
g3
(g4
(I0
tp380
g6
tp381
Rp382
(I1
(L13L
tp383
g13
I00
S'%\xc1\xe0\x99?W_@lRM\xb7\\\xdci@\x1c\xd0)\r\xa1\x1eu@D\x8a\x9d\x9d\x14\xed\x82@\xb9\x9a\xcb?D\xf6\x8b@\n\x13V\x0c[\x98\x92@\x88\x1e\x05Tl\xfd\x96@\x85&eyH\x1a\x99@\xc7\xbb\x8e\x10\x12\xb7\x9a@\xc7\xbb\x8e\x10\x12\xb7\x9a@\xc1\xc4\xb0\x16``\x9a@\xd4\xf0\xb4\xd7\xc7\xb6\x98@s\x1a\xc7\x7f\xd4$\x97@'
p384
tp385
bsg18
(lp386
g20
(g13
S',\x1f\\~%\xe2s?'
p387
tp388
Rp389
ag20
(g13
S'0644k&\xa6?'
p390
tp391
Rp392
asg27
I21
sg28
(F0.0039
F0.0533
g20
(g13
S'`\x02&\xb5T\r\xd8@'
p393
tp394
Rp395
tp396
sg33
g20
(g13
S'\xeaN\xf0\x9f \xb5\xee?'
p397
tp398
Rp399
sg37
(lp400
(F0.0059
F0.0533
tp401
a(F0.0039
F0.0433
tp402
a(F0.0049
F0.043300000000000005
tp403
a(F0.0049
F0.0583
tp404
a(F0.0029
F0.0483
tp405
a(F0.0059
F0.043300000000000005
tp406
a(F0.0049
F0.0483
tp407
a(F0.0039
F0.0483
tp408
a(F0.0049
F0.0383
tp409
a(F0.0039
F0.043300000000000005
tp410
a(F0.0029
F0.0583
tp411
a(F0.0029
F0.0533
tp412
a(F0.0059
F0.0483
tp413
a(F0.0059
F0.0433
tp414
a(F0.0039
F0.0583
tp415
a(F0.0039
F0.0533
tp416
a(F0.0039
F0.0383
tp417
a(F0.0049
F0.0433
tp418
a(F0.0059
F0.0383
tp419
a(F0.0029
F0.043300000000000005
tp420
a(F0.0049
F0.0533
tp421
assI8
(dp422
g2
g3
(g4
(I0
tp423
g6
tp424
Rp425
(I1
(L13L
tp426
g13
I00
S'\x03\xf8\xac#\xa9\xb0c@\xbc\xc9\x9f\xa7\xf5\x98l@\xeaGQ\x8c\x04\xd1u@k`U\xe2s\xbf\x81@!\xe0\xbae8\xda\x8b@\xe4\xd9j6\x87\xde\x91@\xabX\xb5\xd5M\xd5\x95@q\x80Fu\xd82\x99@\x95\xac\xf1{\x18D\x9a@/\x96\xd6\xbd\xd5\x02\x9b@\xa4u\xa2\xec\x87w\x9a@\xff\x05\x9d_\x80\x96\x99@\xbeG\x90wa\x1e\x98@'
p427
tp428
bsg18
(lp429
g20
(g13
S'/8\x85\x92\x067t?'
p430
tp431
Rp432
ag20
(g13
S'K\x8e\xa0\xb5\x84\xe9\xa5?'
p433
tp434
Rp435
asg27
I21
sg28
(F0.0049
F0.0478
g20
(g13
S'\xddC@qN)\xda@'
p436
tp437
Rp438
tp439
sg33
g20
(g13
S'i\xef\xef\xd6w\xe6\xee?'
p440
tp441
Rp442
sg37
(lp443
(F0.0029
F0.0578
tp444
a(F0.0049
F0.0478
tp445
a(F0.0049
F0.0428
tp446
a(F0.0059
F0.0528
tp447
a(F0.0049
F0.0528
tp448
a(F0.0029
F0.042800000000000005
tp449
a(F0.0059
F0.0378
tp450
a(F0.0049
F0.042800000000000005
tp451
a(F0.0039
F0.0528
tp452
a(F0.0039
F0.042800000000000005
tp453
a(F0.0059
F0.0428
tp454
a(F0.0039
F0.0478
tp455
a(F0.0039
F0.0378
tp456
a(F0.0029
F0.0528
tp457
a(F0.0049
F0.0378
tp458
a(F0.0059
F0.042800000000000005
tp459
a(F0.0029
F0.0478
tp460
a(F0.0059
F0.0478
tp461
a(F0.0039
F0.0428
tp462
a(F0.0049
F0.0578
tp463
a(F0.0039
F0.0578
tp464
assI9
(dp465
g2
g3
(g4
(I0
tp466
g6
tp467
Rp468
(I1
(L13L
tp469
g13
I00
S'!\xf5g\xe9\xf8\xa1\\@o\x08\x92X\x17\xa2f@\xd5\x12o\xd6A\xaat@\x19\x9eG\x97S*\x81@DZ\xba\xbe\xfd\xe0\x8a@}om\x85\xf1\x12\x92@\x02\x8e\xa4::*\x96@{\xb7n\xe2\xc1\x0f\x99@\xd1\xb4\x9dD\xd1\xd5\x9a@:^\x89\x17\x1e\xe9\x9a@\xe1.g\xbf\xa0\xc9\x9a@\xa3\xfa\x9b\xf6\xe0W\x99@\x0c\x97\xae\xd5\xa3\xc6\x97@'
p470
tp471
bsg18
(lp472
g20
(g13
S'\x9d\xd4\xcb\xa7\xc8\xabt?'
p473
tp474
Rp475
ag20
(g13
S'\xaeW\x98\x99\x12\xa4\xa5?'
p476
tp477
Rp478
asg27
I28
sg28
(F0.004
F0.0523
g20
(g13
S'\xcc\xd6\xc2\x05\xb7\xcc\xd8@'
p479
tp480
Rp481
tp482
sg33
g20
(g13
S'\xe7\xd8\xb6p\xd2\xdf\xee?'
p483
tp484
Rp485
sg37
(lp486
(F0.004
F0.0573
tp487
a(F0.002
F0.0573
tp488
a(F0.005
F0.0373
tp489
a(F0.007
F0.042300000000000004
tp490
a(F0.005
F0.0473
tp491
a(F0.006
F0.0373
tp492
a(F0.002
F0.062299999999999994
tp493
a(F0.005
F0.0573
tp494
a(F0.006
F0.042300000000000004
tp495
a(F0.004
F0.0473
tp496
a(F0.004
F0.0373
tp497
a(F0.006
F0.0423
tp498
a(F0.005
F0.0423
tp499
a(F0.003
F0.0573
tp500
a(F0.002
F0.0523
tp501
a(F0.006
F0.0523
tp502
a(F0.007
F0.0473
tp503
a(F0.006
F0.0473
tp504
a(F0.003
F0.062299999999999994
tp505
a(F0.005
F0.042300000000000004
tp506
a(F0.004
F0.042300000000000004
tp507
a(F0.005
F0.0523
tp508
a(F0.003
F0.0473
tp509
a(F0.004
F0.0423
tp510
a(F0.004
F0.0523
tp511
a(F0.007
F0.0523
tp512
a(F0.003
F0.0523
tp513
a(F0.004
F0.062299999999999994
tp514
ass.