(dp0
I0
(dp1
S'best_curve'
p2
cnumpy.core.multiarray
_reconstruct
p3
(cnumpy
ndarray
p4
(I0
tp5
S'b'
p6
tp7
Rp8
(I1
(L8L
tp9
cnumpy
dtype
p10
(S'f8'
p11
I0
I1
tp12
Rp13
(I3
S'<'
p14
NNNI-1
I-1
I0
tp15
bI00
S"\xa6Rnd\xc7l\x89@\xee \x90\x81+C\x9a@-I\xfd\xe8\x85s\xa6@'\xca\xa8\xff_\x95\xb1@\xea>s\xbb9\xcf\xb6@\xac\x06v\xb5L\xa6\xb8@\xef&\xec\x9bC\xb5\xb6@/\x1b\xe8s\x199\xb2@"
p16
tp17
bsS'pq0'
p18
(lp19
cnumpy.core.multiarray
scalar
p20
(g13
S'\xb0\x179\xc0\x7f\xca\x90?'
p21
tp22
Rp23
ag20
(g13
S'\x8c\xe3}1\x9eu\xbe?'
p24
tp25
Rp26
asS'steps'
p27
I58
sS'params'
p28
(F0.012399999999999998
F0.14400000000000002
g20
(g13
S':V;/(r\xe4@'
p29
tp30
Rp31
tp32
sS'fitness'
p33
g20
(g13
S'\x1c\x05\xd6(\x0e`\xef?'
p34
tp35
Rp36
sS'path'
p37
(lp38
(F0.0154
F0.119
tp39
a(F0.0144
F0.134
tp40
a(F0.014399999999999996
F0.124
tp41
a(F0.0144
F0.139
tp42
a(F0.0174
F0.134
tp43
a(F0.011399999999999997
F0.139
tp44
a(F0.012399999999999998
F0.14400000000000002
tp45
a(F0.013399999999999999
F0.134
tp46
a(F0.0164
F0.124
tp47
a(F0.0184
F0.119
tp48
a(F0.0164
F0.114
tp49
a(F0.012399999999999998
F0.15400000000000003
tp50
a(F0.0164
F0.129
tp51
a(F0.013399999999999999
F0.139
tp52
a(F0.012399999999999998
F0.15900000000000003
tp53
a(F0.0174
F0.129
tp54
a(F0.0154
F0.139
tp55
a(F0.013399999999999999
F0.15400000000000003
tp56
a(F0.0154
F0.114
tp57
a(F0.017400000000000002
F0.119
tp58
a(F0.012399999999999998
F0.14900000000000002
tp59
a(F0.016399999999999998
F0.129
tp60
a(F0.0154
F0.129
tp61
a(F0.0144
F0.129
tp62
a(F0.017400000000000002
F0.129
tp63
a(F0.0164
F0.119
tp64
a(F0.010399999999999996
F0.15400000000000003
tp65
a(F0.013399999999999999
F0.14400000000000002
tp66
a(F0.0174
F0.119
tp67
a(F0.011399999999999997
F0.14900000000000002
tp68
a(F0.0144
F0.14400000000000002
tp69
a(F0.0184
F0.124
tp70
a(F0.010399999999999996
F0.14900000000000002
tp71
a(F0.010399999999999996
F0.15900000000000003
tp72
a(F0.014399999999999996
F0.129
tp73
a(F0.011399999999999997
F0.15400000000000003
tp74
a(F0.013399999999999999
F0.129
tp75
a(F0.0154
F0.134
tp76
a(F0.017400000000000002
F0.124
tp77
a(F0.011399999999999997
F0.14400000000000002
tp78
a(F0.015399999999999997
F0.134
tp79
a(F0.016399999999999998
F0.119
tp80
a(F0.014399999999999996
F0.134
tp81
a(F0.0144
F0.124
tp82
a(F0.0184
F0.129
tp83
a(F0.016399999999999998
F0.124
tp84
a(F0.0144
F0.14900000000000002
tp85
a(F0.012399999999999998
F0.139
tp86
a(F0.013399999999999999
F0.14900000000000002
tp87
a(F0.0154
F0.124
tp88
a(F0.0174
F0.124
tp89
a(F0.011399999999999997
F0.15900000000000003
tp90
a(F0.0174
F0.114
tp91
a(F0.016399999999999998
F0.134
tp92
a(F0.015399999999999997
F0.129
tp93
a(F0.012399999999999998
F0.134
tp94
a(F0.015399999999999997
F0.124
tp95
a(F0.0164
F0.134
tp96
assI1
(dp97
g2
g3
(g4
(I0
tp98
g6
tp99
Rp100
(I1
(L8L
tp101
g13
I00
S'\x1aM\x96\xb6\xb6c\x86@w\xdb\x8daN\n\x98@C\xe9\xaf\x85\xc2E\xa6@\x8d\x9f9\xd6\xd2\xed\xb1@q\x9a\xa9\xcb\xd17\xb7@\x96\xa6S\xdd\x9a\x10\xb9@kN\x04\xee\xb6t\xb6@\\\xa1\xf8\x99og\xb1@'
p102
tp103
bsg18
(lp104
g20
(g13
S'fF\x0cx\xdc\x83\x8e?'
p105
tp106
Rp107
ag20
(g13
S'\xd7\xdf\xe9\x00mI\xbe?'
p108
tp109
Rp110
asg27
I47
sg28
(F0.011899999999999997
F0.15330000000000002
g20
(g13
S'$VQ\x89\xc6\xc3\xe3@'
p111
tp112
Rp113
tp114
sg33
g20
(g13
S'\x9e\xb6kbX^\xef?'
p115
tp116
Rp117
sg37
(lp118
(F0.011899999999999997
F0.15830000000000002
tp119
a(F0.017900000000000003
F0.12329999999999999
tp120
a(F0.010899999999999996
F0.1433
tp121
a(F0.0139
F0.14830000000000002
tp122
a(F0.0139
F0.1433
tp123
a(F0.016900000000000002
F0.1183
tp124
a(F0.016900000000000002
F0.1333
tp125
a(F0.0159
F0.1133
tp126
a(F0.011899999999999997
F0.15330000000000002
tp127
a(F0.010899999999999996
F0.15330000000000002
tp128
a(F0.017900000000000003
F0.1283
tp129
a(F0.011899999999999997
F0.1433
tp130
a(F0.012899999999999998
F0.14830000000000002
tp131
a(F0.0149
F0.1433
tp132
a(F0.016900000000000002
F0.12329999999999999
tp133
a(F0.011899999999999997
F0.14830000000000002
tp134
a(F0.0159
F0.1383
tp135
a(F0.016900000000000002
F0.1283
tp136
a(F0.0139
F0.1383
tp137
a(F0.0149
F0.1183
tp138
a(F0.0139
F0.1133
tp139
a(F0.011899999999999997
F0.1383
tp140
a(F0.012899999999999998
F0.15330000000000002
tp141
a(F0.010899999999999996
F0.14830000000000002
tp142
a(F0.017900000000000003
F0.1333
tp143
a(F0.012899999999999998
F0.15830000000000002
tp144
a(F0.012899999999999998
F0.1383
tp145
a(F0.0149
F0.1383
tp146
a(F0.0149
F0.1233
tp147
a(F0.0139
F0.1333
tp148
a(F0.0149
F0.12329999999999999
tp149
a(F0.0159
F0.1183
tp150
a(F0.0159
F0.1283
tp151
a(F0.0159
F0.12329999999999999
tp152
a(F0.016900000000000002
F0.1233
tp153
a(F0.0149
F0.1333
tp154
a(F0.0149
F0.1283
tp155
a(F0.0139
F0.1233
tp156
a(F0.0139
F0.1183
tp157
a(F0.012899999999999998
F0.1333
tp158
a(F0.010899999999999996
F0.15830000000000002
tp159
a(F0.0159
F0.1233
tp160
a(F0.0159
F0.1333
tp161
a(F0.016900000000000002
F0.1383
tp162
a(F0.0149
F0.1133
tp163
a(F0.012899999999999998
F0.1433
tp164
a(F0.0139
F0.1283
tp165
assI2
(dp166
g2
g3
(g4
(I0
tp167
g6
tp168
Rp169
(I1
(L8L
tp170
g13
I00
S'\xcb\xeb\x92\xb2\xf1=\x89@\xb5\x0c\x0cN\xacl\x99@\xd7\x84Y\x88\xf3\xd1\xa6@\x98R\x80\x059\x82\xb1@\xc7w\x8b@T\xf3\xb6@Q\x1e\xd5A\xca\x8b\xb8@q\x86T\xe4\x81\xbd\xb6@6\x16f\xe6\xdd,\xb2@'
p171
tp172
bsg18
(lp173
g20
(g13
S'm\x1e\x14\xe7\xec\x1b\x91?'
p174
tp175
Rp176
ag20
(g13
S"\x88'\xb1\xbf\x19\x96\xbe?"
p177
tp178
Rp179
asg27
I42
sg28
(F0.012699999999999996
F0.14450000000000002
g20
(g13
S'\xe6\x86|lH_\xe4@'
p180
tp181
Rp182
tp183
sg33
g20
(g13
S'\xe4\x1e\xfbAN\\\xef?'
p184
tp185
Rp186
sg37
(lp187
(F0.014699999999999998
F0.1395
tp188
a(F0.012699999999999996
F0.14950000000000002
tp189
a(F0.0167
F0.1245
tp190
a(F0.0167
F0.1195
tp191
a(F0.0157
F0.1295
tp192
a(F0.0177
F0.1295
tp193
a(F0.0177
F0.1195
tp194
a(F0.012699999999999996
F0.1345
tp195
a(F0.012699999999999996
F0.14450000000000002
tp196
a(F0.011699999999999995
F0.14450000000000002
tp197
a(F0.0187
F0.1245
tp198
a(F0.013699999999999997
F0.14950000000000002
tp199
a(F0.013699999999999997
F0.1395
tp200
a(F0.014699999999999998
F0.1195
tp201
a(F0.012699999999999996
F0.1395
tp202
a(F0.013699999999999997
F0.1295
tp203
a(F0.0167
F0.1145
tp204
a(F0.014699999999999998
F0.1245
tp205
a(F0.0187
F0.1295
tp206
a(F0.0167
F0.1345
tp207
a(F0.014699999999999998
F0.1345
tp208
a(F0.013699999999999997
F0.14450000000000002
tp209
a(F0.0157
F0.1395
tp210
a(F0.0157
F0.1145
tp211
a(F0.011699999999999995
F0.15450000000000003
tp212
a(F0.011699999999999995
F0.14950000000000002
tp213
a(F0.0187
F0.1195
tp214
a(F0.011699999999999995
F0.1395
tp215
a(F0.0177
F0.1245
tp216
a(F0.013699999999999997
F0.1245
tp217
a(F0.014699999999999998
F0.1295
tp218
a(F0.012699999999999996
F0.1295
tp219
a(F0.0167
F0.1295
tp220
a(F0.0177
F0.1145
tp221
a(F0.013699999999999997
F0.1345
tp222
a(F0.014699999999999998
F0.14450000000000002
tp223
a(F0.0157
F0.1195
tp224
a(F0.012699999999999996
F0.15450000000000003
tp225
a(F0.011699999999999995
F0.1345
tp226
a(F0.013699999999999997
F0.15450000000000003
tp227
a(F0.0157
F0.1245
tp228
a(F0.0157
F0.1345
tp229
assI3
(dp230
g2
g3
(g4
(I0
tp231
g6
tp232
Rp233
(I1
(L8L
tp234
g13
I00
S'A<\xd1P\x9d\xb8\x87@M\x8f3A\xb0%\x99@/\xcb\xe92o|\xa6@\x89\xa3\xd0\xf9\xc1\xcf\xb1@\xde\x85Hys!\xb7@\x0f=\xbb`G\x0f\xb9@\xa4`\xedo\xc4x\xb6@\x14\xa2PC\xe5i\xb1@'
p235
tp236
bsg18
(lp237
g20
(g13
S'\xd6\xc5C\xf9\xb1\x06\x91?'
p238
tp239
Rp240
ag20
(g13
S'\xe8:\xb5\xf9\xaa\xfa\xbe?'
p241
tp242
Rp243
asg27
I40
sg28
(F0.011599999999999996
F0.15100000000000002
g20
(g13
S'\xddH\x00\xa5\x1b\xe5\xe3@'
p244
tp245
Rp246
tp247
sg33
g20
(g13
S'h\xfc\xa4\xcb2R\xef?'
p248
tp249
Rp250
sg37
(lp251
(F0.013599999999999998
F0.126
tp252
a(F0.0156
F0.126
tp253
a(F0.013599999999999998
F0.136
tp254
a(F0.010599999999999995
F0.15600000000000003
tp255
a(F0.014599999999999998
F0.121
tp256
a(F0.014599999999999998
F0.131
tp257
a(F0.0176
F0.116
tp258
a(F0.011599999999999996
F0.14100000000000001
tp259
a(F0.012599999999999997
F0.136
tp260
a(F0.012599999999999997
F0.14600000000000002
tp261
a(F0.011599999999999996
F0.15600000000000003
tp262
a(F0.013599999999999998
F0.131
tp263
a(F0.013599999999999998
F0.14100000000000001
tp264
a(F0.0156
F0.131
tp265
a(F0.0156
F0.136
tp266
a(F0.0166
F0.136
tp267
a(F0.0166
F0.121
tp268
a(F0.013599999999999998
F0.14600000000000002
tp269
a(F0.010599999999999995
F0.15100000000000002
tp270
a(F0.0156
F0.116
tp271
a(F0.013599999999999998
F0.15100000000000002
tp272
a(F0.011599999999999996
F0.14600000000000002
tp273
a(F0.012599999999999997
F0.15100000000000002
tp274
a(F0.0176
F0.126
tp275
a(F0.0176
F0.121
tp276
a(F0.012599999999999997
F0.14100000000000001
tp277
a(F0.0166
F0.131
tp278
a(F0.0156
F0.14100000000000001
tp279
a(F0.010599999999999995
F0.14600000000000002
tp280
a(F0.014599999999999998
F0.136
tp281
a(F0.0176
F0.131
tp282
a(F0.012599999999999997
F0.15600000000000003
tp283
a(F0.0166
F0.126
tp284
a(F0.011599999999999996
F0.15100000000000002
tp285
a(F0.014599999999999998
F0.14100000000000001
tp286
a(F0.011599999999999996
F0.136
tp287
a(F0.012599999999999997
F0.131
tp288
a(F0.0166
F0.116
tp289
a(F0.014599999999999998
F0.126
tp290
a(F0.0156
F0.121
tp291
assI4
(dp292
g2
g3
(g4
(I0
tp293
g6
tp294
Rp295
(I1
(L8L
tp296
g13
I00
S'?\xe6v\x87K\xe9\x89@Hyy\xf8g\xc4\x99@\xa0\xe3\xbdo,\xea\xa6@!\x9a\xf4\xe4D\xbc\xb1@\xce~\xae\x84T\xf6\xb6@\xc2\x90?1`\xc6\xb8@\x0b\xb8Su\xcb\x81\xb6@\x98\xd9\xaf\x9f\xad\xd6\xb1@'
p297
tp298
bsg18
(lp299
g20
(g13
S'P\x04\x80N\xb1\x16\x90?'
p300
tp301
Rp302
ag20
(g13
S'g\x90\xc2\xa5E\xcc\xbd?'
p303
tp304
Rp305
asg27
I48
sg28
(F0.012699999999999996
F0.1414
g20
(g13
S'!\xde@\x91\xe6w\xe4@'
p306
tp307
Rp308
tp309
sg33
g20
(g13
S'\x97~ \xfc\xc0Y\xef?'
p310
tp311
Rp312
sg37
(lp313
(F0.012699999999999996
F0.1414
tp314
a(F0.0157
F0.1214
tp315
a(F0.0147
F0.1114
tp316
a(F0.0177
F0.12139999999999998
tp317
a(F0.0157
F0.1314
tp318
a(F0.0157
F0.11639999999999999
tp319
a(F0.012699999999999996
F0.1364
tp320
a(F0.014699999999999998
F0.1364
tp321
a(F0.014699999999999998
F0.12639999999999998
tp322
a(F0.0177
F0.12639999999999998
tp323
a(F0.011699999999999995
F0.1364
tp324
a(F0.0167
F0.12139999999999998
tp325
a(F0.013699999999999997
F0.1514
tp326
a(F0.0167
F0.1314
tp327
a(F0.0167
F0.1114
tp328
a(F0.012699999999999996
F0.1514
tp329
a(F0.012699999999999996
F0.1314
tp330
a(F0.0157
F0.12639999999999998
tp331
a(F0.0167
F0.1214
tp332
a(F0.0177
F0.1314
tp333
a(F0.0157
F0.12139999999999998
tp334
a(F0.014699999999999998
F0.11639999999999999
tp335
a(F0.0167
F0.1164
tp336
a(F0.012699999999999996
F0.1464
tp337
a(F0.013699999999999997
F0.1364
tp338
a(F0.014699999999999998
F0.1464
tp339
a(F0.014699999999999998
F0.12139999999999998
tp340
a(F0.0167
F0.12639999999999998
tp341
a(F0.0157
F0.1114
tp342
a(F0.011699999999999995
F0.1514
tp343
a(F0.014699999999999998
F0.1314
tp344
a(F0.0147
F0.1214
tp345
a(F0.0157
F0.1364
tp346
a(F0.013699999999999997
F0.12639999999999998
tp347
a(F0.0177
F0.1214
tp348
a(F0.013699999999999997
F0.1464
tp349
a(F0.0167
F0.1364
tp350
a(F0.013699999999999997
F0.1414
tp351
a(F0.014699999999999998
F0.1214
tp352
a(F0.0147
F0.1164
tp353
a(F0.0177
F0.11639999999999999
tp354
a(F0.013699999999999997
F0.1314
tp355
a(F0.0167
F0.11639999999999999
tp356
a(F0.0177
F0.1364
tp357
a(F0.011699999999999995
F0.1464
tp358
a(F0.011699999999999995
F0.1414
tp359
a(F0.0157
F0.1164
tp360
a(F0.014699999999999998
F0.1414
tp361
assI5
(dp362
g2
g3
(g4
(I0
tp363
g6
tp364
Rp365
(I1
(L8L
tp366
g13
I00
S'\xa0\x04\xfb\xa92K\x89@v\xf8\xd7\x92\xed5\x9a@\xb3]\x878\xc9\x81\xa6@(d\xd6\x9e\xd7f\xb1@\x9d\xb8\x94.\x0e\xaf\xb6@\xfa3\t\xf8\x83\xca\xb8@\x8c\x04\xb7\x06\x08\xe3\xb6@l\xf5C\xa2g\x19\xb2@'
p367
tp368
bsg18
(lp369
g20
(g13
S'-C2\xf6\xa7\xd8\x90?'
p370
tp371
Rp372
ag20
(g13
S'%`\xbe\xb2\xb3d\xbf?'
p373
tp374
Rp375
asg27
I36
sg28
(F0.012499999999999997
F0.1426
g20
(g13
S'\xf6\x8bh\xf2\x82w\xe4@'
p376
tp377
Rp378
tp379
sg33
g20
(g13
S'\xa96\x12\x00\xa4M\xef?'
p380
tp381
Rp382
sg37
(lp383
(F0.012499999999999997
F0.1476
tp384
a(F0.0175
F0.1326
tp385
a(F0.0165
F0.1176
tp386
a(F0.0155
F0.1176
tp387
a(F0.014499999999999999
F0.12259999999999999
tp388
a(F0.0155
F0.1376
tp389
a(F0.0155
F0.1426
tp390
a(F0.0165
F0.12259999999999999
tp391
a(F0.014499999999999999
F0.1326
tp392
a(F0.013499999999999998
F0.1476
tp393
a(F0.0155
F0.1326
tp394
a(F0.0175
F0.1226
tp395
a(F0.0165
F0.1376
tp396
a(F0.013499999999999998
F0.1376
tp397
a(F0.014499999999999999
F0.1276
tp398
a(F0.011499999999999996
F0.1476
tp399
a(F0.012499999999999997
F0.1426
tp400
a(F0.0175
F0.12259999999999999
tp401
a(F0.0155
F0.12259999999999999
tp402
a(F0.0155
F0.1276
tp403
a(F0.014499999999999999
F0.1476
tp404
a(F0.0155
F0.1226
tp405
a(F0.011499999999999996
F0.1376
tp406
a(F0.0165
F0.1426
tp407
a(F0.014499999999999999
F0.1426
tp408
a(F0.011499999999999996
F0.1426
tp409
a(F0.013499999999999998
F0.1276
tp410
a(F0.0165
F0.1276
tp411
a(F0.013499999999999998
F0.1426
tp412
a(F0.0175
F0.1276
tp413
a(F0.0175
F0.1176
tp414
a(F0.012499999999999997
F0.1376
tp415
a(F0.0165
F0.1226
tp416
a(F0.013499999999999998
F0.1326
tp417
a(F0.0165
F0.1326
tp418
a(F0.014499999999999999
F0.1376
tp419
assI6
(dp420
g2
g3
(g4
(I0
tp421
g6
tp422
Rp423
(I1
(L8L
tp424
g13
I00
S'\x07\xb0\x9a\xf3\xff#\x87@\xe9\xe0\xe0\xd3\xb6\xb6\x97@Z\x1f\xfd\xb6Xi\xa6@\xb4\xfb\x9c\x92\x8c\xb9\xb1@S\x88}z\xbb\n\xb7@\x14\x1cs|^\xe8\xb8@\xe6\x87\xf4\xf8\xbb\x9e\xb6@\x89<w[\xab\xd5\xb1@'
p425
tp426
bsg18
(lp427
g20
(g13
S'k\x08\x8f\xf6z\xd8\x90?'
p428
tp429
Rp430
ag20
(g13
S'Sv\xfa\xc0\xa9O\xbf?'
p431
tp432
Rp433
asg27
I43
sg28
(F0.011499999999999996
F0.15230000000000002
g20
(g13
S'(\xda/\xa4?\xe6\xe3@'
p434
tp435
Rp436
tp437
sg33
g20
(g13
S'\x86I\xdc\x8c@e\xef?'
p438
tp439
Rp440
sg37
(lp441
(F0.014499999999999999
F0.12229999999999999
tp442
a(F0.0155
F0.1173
tp443
a(F0.013499999999999998
F0.1373
tp444
a(F0.013499999999999998
F0.15230000000000002
tp445
a(F0.010499999999999995
F0.14730000000000001
tp446
a(F0.012499999999999997
F0.15230000000000002
tp447
a(F0.012499999999999997
F0.1373
tp448
a(F0.0175
F0.12229999999999999
tp449
a(F0.0165
F0.1223
tp450
a(F0.011499999999999996
F0.1423
tp451
a(F0.0165
F0.12229999999999999
tp452
a(F0.0155
F0.1273
tp453
a(F0.0165
F0.1323
tp454
a(F0.012499999999999997
F0.15730000000000002
tp455
a(F0.014499999999999999
F0.1273
tp456
a(F0.012499999999999997
F0.14730000000000001
tp457
a(F0.0165
F0.1373
tp458
a(F0.013499999999999998
F0.1323
tp459
a(F0.0175
F0.1273
tp460
a(F0.014499999999999999
F0.14730000000000001
tp461
a(F0.013499999999999998
F0.1423
tp462
a(F0.014499999999999999
F0.1323
tp463
a(F0.010499999999999995
F0.15730000000000002
tp464
a(F0.0165
F0.1173
tp465
a(F0.014499999999999999
F0.1423
tp466
a(F0.0155
F0.1423
tp467
a(F0.012499999999999997
F0.1423
tp468
a(F0.011499999999999996
F0.15730000000000002
tp469
a(F0.010499999999999995
F0.15230000000000002
tp470
a(F0.011499999999999996
F0.14730000000000001
tp471
a(F0.012499999999999997
F0.1323
tp472
a(F0.011499999999999996
F0.15230000000000002
tp473
a(F0.0175
F0.1323
tp474
a(F0.013499999999999998
F0.14730000000000001
tp475
a(F0.0175
F0.1173
tp476
a(F0.0155
F0.1373
tp477
a(F0.0155
F0.1223
tp478
a(F0.0175
F0.1223
tp479
a(F0.0155
F0.1323
tp480
a(F0.0165
F0.1273
tp481
a(F0.014499999999999999
F0.1373
tp482
a(F0.0155
F0.12229999999999999
tp483
a(F0.013499999999999998
F0.1273
tp484
assI7
(dp485
g2
g3
(g4
(I0
tp486
g6
tp487
Rp488
(I1
(L8L
tp489
g13
I00
S"\xd6\x80\xdf\xfc\x98\x11\x8b@;\xf5\xc3v\xc1\xf7\x99@\xbe\x97^\xd3\x07c\xa7@\xa5\xc8\xb7\xb4'\x84\xb1@\x15\xfa\xf8B\x9a\x92\xb6@\xe9\xb2\xdd_D\xa3\xb8@\xd4\xb5\x18\x9a\xcf\xc4\xb6@\x07#~D\x08/\xb2@"
p490
tp491
bsg18
(lp492
g20
(g13
S'l\xf4\x8a\xba\x92\xd4\x91?'
p493
tp494
Rp495
ag20
(g13
S'\xbbv\x8b\xfe\xde\xbc\xbe?'
p496
tp497
Rp498
asg27
I49
sg28
(F0.013399999999999999
F0.1401
g20
(g13
S'\xc3\xbfn\xca\xfc\x99\xe4@'
p499
tp500
Rp501
tp502
sg33
g20
(g13
S'\x87\x12\xb69\x93J\xef?'
p503
tp504
Rp505
sg37
(lp506
(F0.012399999999999998
F0.1401
tp507
a(F0.015399999999999997
F0.12009999999999998
tp508
a(F0.0144
F0.1251
tp509
a(F0.0154
F0.1351
tp510
a(F0.0184
F0.12009999999999998
tp511
a(F0.015399999999999997
F0.1251
tp512
a(F0.017400000000000002
F0.12009999999999998
tp513
a(F0.0184
F0.1201
tp514
a(F0.013399999999999999
F0.1451
tp515
a(F0.0174
F0.1251
tp516
a(F0.011399999999999997
F0.1501
tp517
a(F0.0144
F0.1451
tp518
a(F0.0164
F0.1301
tp519
a(F0.0144
F0.1301
tp520
a(F0.0174
F0.1201
tp521
a(F0.012399999999999998
F0.1451
tp522
a(F0.013399999999999999
F0.1301
tp523
a(F0.0154
F0.12009999999999998
tp524
a(F0.0184
F0.1151
tp525
a(F0.011399999999999997
F0.1451
tp526
a(F0.0184
F0.1301
tp527
a(F0.017400000000000002
F0.1251
tp528
a(F0.0154
F0.1401
tp529
a(F0.013399999999999999
F0.1501
tp530
a(F0.0154
F0.1251
tp531
a(F0.0164
F0.1251
tp532
a(F0.012399999999999998
F0.1351
tp533
a(F0.012399999999999998
F0.1501
tp534
a(F0.0164
F0.1351
tp535
a(F0.0174
F0.1151
tp536
a(F0.013399999999999999
F0.1351
tp537
a(F0.0154
F0.1451
tp538
a(F0.0184
F0.1251
tp539
a(F0.0174
F0.12009999999999998
tp540
a(F0.0144
F0.1351
tp541
a(F0.0164
F0.1201
tp542
a(F0.0144
F0.1401
tp543
a(F0.011399999999999997
F0.1401
tp544
a(F0.016399999999999998
F0.1301
tp545
a(F0.0154
F0.1301
tp546
a(F0.0164
F0.1151
tp547
a(F0.015399999999999997
F0.1301
tp548
a(F0.0174
F0.1301
tp549
a(F0.016399999999999998
F0.1251
tp550
a(F0.013399999999999999
F0.1401
tp551
a(F0.0164
F0.12009999999999998
tp552
a(F0.0164
F0.1401
tp553
a(F0.017400000000000002
F0.1301
tp554
a(F0.016399999999999998
F0.12009999999999998
tp555
assI8
(dp556
g2
g3
(g4
(I0
tp557
g6
tp558
Rp559
(I1
(L8L
tp560
g13
I00
S'Kwf4,q\x88@\x9et\x81\xb4F\xc2\x99@\x92;\xc9\xea(~\xa6@\x7f\xfey\x9ap\xa4\xb1@\xd2[\xb7)\xaf\xe9\xb6@\x10N\x85XU\xb7\xb8@\x82\x1a\xff\xd8x\xc8\xb6@8\xb9^\xe8Z\xe9\xb1@'
p561
tp562
bsg18
(lp563
g20
(g13
S'\x99A\xd3\xd4\x9d\x1c\x91?'
p564
tp565
Rp566
ag20
(g13
S'\xb6\x840\x81\xf8\xac\xbe?'
p567
tp568
Rp569
asg27
I43
sg28
(F0.012699999999999996
F0.1448
g20
(g13
S'\x18\xddu\xc4fE\xe4@'
p570
tp571
Rp572
tp573
sg33
g20
(g13
S'\xa9nb\x04Fe\xef?'
p574
tp575
Rp576
sg37
(lp577
(F0.013699999999999997
F0.1248
tp578
a(F0.012699999999999996
F0.1448
tp579
a(F0.0157
F0.1148
tp580
a(F0.011699999999999995
F0.14980000000000002
tp581
a(F0.013699999999999997
F0.1398
tp582
a(F0.0177
F0.1298
tp583
a(F0.0157
F0.1298
tp584
a(F0.0167
F0.1248
tp585
a(F0.014699999999999998
F0.1248
tp586
a(F0.0167
F0.1298
tp587
a(F0.011699999999999995
F0.1448
tp588
a(F0.013699999999999997
F0.1348
tp589
a(F0.010699999999999994
F0.14980000000000002
tp590
a(F0.0157
F0.1398
tp591
a(F0.010699999999999994
F0.1448
tp592
a(F0.014699999999999998
F0.1448
tp593
a(F0.0167
F0.1148
tp594
a(F0.011699999999999995
F0.1398
tp595
a(F0.0157
F0.1198
tp596
a(F0.0177
F0.1148
tp597
a(F0.0177
F0.11979999999999999
tp598
a(F0.014699999999999998
F0.1348
tp599
a(F0.012699999999999996
F0.1348
tp600
a(F0.013699999999999997
F0.1448
tp601
a(F0.0167
F0.11979999999999999
tp602
a(F0.010699999999999994
F0.15480000000000002
tp603
a(F0.012699999999999996
F0.1398
tp604
a(F0.0167
F0.1198
tp605
a(F0.0177
F0.1198
tp606
a(F0.012699999999999996
F0.1298
tp607
a(F0.014699999999999998
F0.1298
tp608
a(F0.011699999999999995
F0.15480000000000002
tp609
a(F0.012699999999999996
F0.15480000000000002
tp610
a(F0.0157
F0.1248
tp611
a(F0.014699999999999998
F0.1398
tp612
a(F0.013699999999999997
F0.14980000000000002
tp613
a(F0.0177
F0.1248
tp614
a(F0.012699999999999996
F0.14980000000000002
tp615
a(F0.014699999999999998
F0.11979999999999999
tp616
a(F0.0167
F0.1348
tp617
a(F0.0157
F0.11979999999999999
tp618
a(F0.0157
F0.1348
tp619
a(F0.013699999999999997
F0.1298
tp620
assI9
(dp621
g2
g3
(g4
(I0
tp622
g6
tp623
Rp624
(I1
(L8L
tp625
g13
I00
S'\xea\x10\xe8p\x98r\x87@\xcd.\x14\x91Z\x90\x98@$P\x94\xf4v\xc8\xa5@\xaf\xd1\x04 \x11e\xb1@3\x1b\xf5\x82\\}\xb6@\x96gz2\xf5\xd6\xb8@fF\xb3\x16\xc6\x18\xb7@\xdc\x93Ya\xdcp\xb2@'
p626
tp627
bsg18
(lp628
g20
(g13
S'\xcf\x7f\xa66\x87\x8f\x90?'
p629
tp630
Rp631
ag20
(g13
S'`A\x03m\x00\xdc\xbe?'
p632
tp633
Rp634
asg27
I39
sg28
(F0.012199999999999996
F0.14550000000000002
g20
(g13
S'/\xfe\x9d\xf30f\xe4@'
p635
tp636
Rp637
tp638
sg33
g20
(g13
S'\x80\xab(\xf1\xe7\\\xef?'
p639
tp640
Rp641
sg37
(lp642
(F0.013199999999999996
F0.1305
tp643
a(F0.0152
F0.1205
tp644
a(F0.0182
F0.1305
tp645
a(F0.011199999999999995
F0.14550000000000002
tp646
a(F0.015199999999999998
F0.1305
tp647
a(F0.014199999999999997
F0.1405
tp648
a(F0.012199999999999996
F0.1355
tp649
a(F0.0172
F0.1305
tp650
a(F0.013199999999999996
F0.15050000000000002
tp651
a(F0.014199999999999997
F0.1305
tp652
a(F0.014199999999999997
F0.14550000000000002
tp653
a(F0.015199999999999998
F0.1405
tp654
a(F0.013199999999999996
F0.14550000000000002
tp655
a(F0.0172
F0.1205
tp656
a(F0.015199999999999998
F0.1205
tp657
a(F0.0172
F0.1355
tp658
a(F0.0162
F0.1355
tp659
a(F0.0152
F0.1155
tp660
a(F0.013199999999999996
F0.1405
tp661
a(F0.014199999999999997
F0.1255
tp662
a(F0.0162
F0.1155
tp663
a(F0.014199999999999997
F0.1355
tp664
a(F0.0172
F0.1155
tp665
a(F0.0162
F0.1305
tp666
a(F0.0162
F0.1255
tp667
a(F0.0152
F0.1255
tp668
a(F0.0172
F0.1255
tp669
a(F0.012199999999999996
F0.1405
tp670
a(F0.012199999999999996
F0.15050000000000002
tp671
a(F0.0182
F0.1255
tp672
a(F0.015199999999999998
F0.1255
tp673
a(F0.012199999999999996
F0.14550000000000002
tp674
a(F0.015199999999999998
F0.1355
tp675
a(F0.013199999999999996
F0.1355
tp676
a(F0.011199999999999995
F0.15050000000000002
tp677
a(F0.0162
F0.1405
tp678
a(F0.011199999999999995
F0.1405
tp679
a(F0.0162
F0.1205
tp680
a(F0.0182
F0.1205
tp681
ass.