(dp0
I0
(dp1
S'best_curve'
p2
cnumpy.core.multiarray
_reconstruct
p3
(cnumpy
ndarray
p4
(I0
tp5
S'b'
p6
tp7
Rp8
(I1
(L8L
tp9
cnumpy
dtype
p10
(S'f8'
p11
I0
I1
tp12
Rp13
(I3
S'<'
p14
NNNI-1
I-1
I0
tp15
bI00
S'0\xa4\xb6\xfd\xa1\x7f\x8a@\x82k2\xed\xbc\x11\x9c@\xe2R\xe1-\xfe\x90\xa8@\x85Gk\x00?R\xb2@\n\x8f\xa8;\xa5\xb8\xb6@\x8f\x07\xacd>8\xb8@M\xcf\xe3\xa9\x16?\xb6@WG]v\xf3\xd9\xb1@'
p16
tp17
bsS'pq0'
p18
(lp19
cnumpy.core.multiarray
scalar
p20
(g13
S'\x84\x94\xac\xff[q\x8d?'
p21
tp22
Rp23
ag20
(g13
S'B.\xeb\x80"\x8f\xc0?'
p24
tp25
Rp26
asS'steps'
p27
I38
sS'params'
p28
(F0.013399999999999999
F0.1544
g20
(g13
S'v\x14k\xe2\xa6\x89\xe4@'
p29
tp30
Rp31
tp32
sS'fitness'
p33
g20
(g13
S'l-\x86{\xe4Q\xef?'
p34
tp35
Rp36
sS'path'
p37
(lp38
(F0.011399999999999997
F0.16440000000000002
tp39
a(F0.0144
F0.15940000000000001
tp40
a(F0.012399999999999998
F0.1544
tp41
a(F0.013399999999999999
F0.1394
tp42
a(F0.0144
F0.1494
tp43
a(F0.011399999999999997
F0.15940000000000001
tp44
a(F0.013399999999999999
F0.16440000000000002
tp45
a(F0.0164
F0.1444
tp46
a(F0.0144
F0.1544
tp47
a(F0.013399999999999999
F0.1444
tp48
a(F0.011399999999999997
F0.1544
tp49
a(F0.0144
F0.1344
tp50
a(F0.0154
F0.1244
tp51
a(F0.013399999999999999
F0.1294
tp52
a(F0.013399999999999999
F0.1344
tp53
a(F0.012399999999999998
F0.1444
tp54
a(F0.012399999999999998
F0.15940000000000001
tp55
a(F0.0164
F0.1344
tp56
a(F0.013399999999999999
F0.1494
tp57
a(F0.0154
F0.1294
tp58
a(F0.0164
F0.1494
tp59
a(F0.012399999999999998
F0.1494
tp60
a(F0.0144
F0.1294
tp61
a(F0.0134
F0.1344
tp62
a(F0.0144
F0.1394
tp63
a(F0.0134
F0.1294
tp64
a(F0.0154
F0.1494
tp65
a(F0.012399999999999998
F0.16440000000000002
tp66
a(F0.0154
F0.1344
tp67
a(F0.0144
F0.1244
tp68
a(F0.0144
F0.1444
tp69
a(F0.0134
F0.1244
tp70
a(F0.013399999999999999
F0.1544
tp71
a(F0.0164
F0.1294
tp72
a(F0.0154
F0.1394
tp73
a(F0.0164
F0.1394
tp74
a(F0.013399999999999999
F0.15940000000000001
tp75
a(F0.0154
F0.1444
tp76
assI1
(dp77
g2
g3
(g4
(I0
tp78
g6
tp79
Rp80
(I1
(L8L
tp81
g13
I00
S"(b\x16\x1c\x14Z\x89@\x9a\x08\x12\x85\xd2\x03\x9b@\x81#\xfca\x16\xa2\xa7@2\r\xf7\xcf\x11\xdf\xb1@I\xe7\xb3\xe1\x01\x8b\xb6@\xb8jSP\x8av\xb8@\x96'\xee\x08\x1f\x9f\xb6@p>z\x8531\xb2@"
p82
tp83
bsg18
(lp84
g20
(g13
S'\xd7\xdf\xe2\xdce\xd4\x8c?'
p85
tp86
Rp87
ag20
(g13
S'#c\xfd\x0e\x84\x8c\xbf?'
p88
tp89
Rp90
asg27
I57
sg28
(F0.012099999999999996
F0.15820000000000004
g20
(g13
S'9?,R\xfdu\xe4@'
p91
tp92
Rp93
tp94
sg33
g20
(g13
S'\x00"3?\xb1_\xef?'
p95
tp96
Rp97
sg37
(lp98
(F0.0141
F0.1282
tp99
a(F0.013099999999999997
F0.14320000000000002
tp100
a(F0.0151
F0.13820000000000002
tp101
a(F0.0151
F0.1232
tp102
a(F0.014099999999999998
F0.1332
tp103
a(F0.013099999999999997
F0.15320000000000003
tp104
a(F0.015099999999999999
F0.1282
tp105
a(F0.013099999999999997
F0.15820000000000004
tp106
a(F0.0151
F0.1282
tp107
a(F0.011099999999999995
F0.15320000000000003
tp108
a(F0.013099999999999997
F0.16820000000000004
tp109
a(F0.013099999999999997
F0.14820000000000003
tp110
a(F0.015099999999999999
F0.1332
tp111
a(F0.014099999999999998
F0.13820000000000002
tp112
a(F0.012099999999999996
F0.16320000000000004
tp113
a(F0.0151
F0.1332
tp114
a(F0.0171
F0.1282
tp115
a(F0.0171
F0.13820000000000002
tp116
a(F0.011099999999999995
F0.15820000000000004
tp117
a(F0.015099999999999999
F0.1232
tp118
a(F0.015099999999999999
F0.14820000000000003
tp119
a(F0.0161
F0.1282
tp120
a(F0.0161
F0.13820000000000002
tp121
a(F0.012099999999999996
F0.15820000000000004
tp122
a(F0.0131
F0.1332
tp123
a(F0.0141
F0.1332
tp124
a(F0.014100000000000001
F0.1332
tp125
a(F0.012099999999999996
F0.15320000000000003
tp126
a(F0.014099999999999998
F0.15320000000000003
tp127
a(F0.014100000000000001
F0.1282
tp128
a(F0.015099999999999999
F0.14320000000000002
tp129
a(F0.0141
F0.1182
tp130
a(F0.012099999999999996
F0.14320000000000002
tp131
a(F0.0151
F0.1182
tp132
a(F0.011099999999999995
F0.16820000000000004
tp133
a(F0.011099999999999995
F0.16320000000000004
tp134
a(F0.014100000000000001
F0.1232
tp135
a(F0.015099999999999999
F0.15320000000000003
tp136
a(F0.012099999999999996
F0.14820000000000003
tp137
a(F0.0161
F0.14320000000000002
tp138
a(F0.0131
F0.1232
tp139
a(F0.013099999999999997
F0.13820000000000002
tp140
a(F0.013099999999999997
F0.16320000000000004
tp141
a(F0.011099999999999995
F0.14820000000000003
tp142
a(F0.0131
F0.1182
tp143
a(F0.0161
F0.1232
tp144
a(F0.014099999999999998
F0.14820000000000003
tp145
a(F0.0131
F0.1282
tp146
a(F0.012099999999999996
F0.16820000000000004
tp147
a(F0.0161
F0.1332
tp148
a(F0.014100000000000001
F0.13820000000000002
tp149
a(F0.015099999999999999
F0.13820000000000002
tp150
a(F0.0171
F0.1332
tp151
a(F0.014099999999999998
F0.14320000000000002
tp152
a(F0.0171
F0.14320000000000002
tp153
a(F0.0161
F0.14820000000000003
tp154
a(F0.0141
F0.1232
tp155
assI2
(dp156
g2
g3
(g4
(I0
tp157
g6
tp158
Rp159
(I1
(L8L
tp160
g13
I00
S'U\xdeK\xbc\ns\x88@\xaa\xb28\xc3\x94K\x9a@\xd7\xbb\xb8\xa6\xad\xd3\xa6@\xd6\xff#\x9a\xf8\xa6\xb1@j\xbc\xf04/\x9c\xb6@\x90\x14wZ0z\xb8@\x82\x11\x04\x8fN\xb3\xb6@\x93y\x1c\xdfZ\x8d\xb2@'
p161
tp162
bsg18
(lp163
g20
(g13
S'\xa3\xfc\xf5U\x8a(\x8b?'
p164
tp165
Rp166
ag20
(g13
S'-M\x0f\xe8\xec\x03\xc0?'
p167
tp168
Rp169
asg27
I52
sg28
(F0.011299999999999998
F0.16010000000000002
g20
(g13
S'p\xd1\x86=\x1b\x87\xe4@'
p170
tp171
Rp172
tp173
sg33
g20
(g13
S'H\xf4J\xa8ud\xef?'
p174
tp175
Rp176
sg37
(lp177
(F0.015300000000000001
F0.1301
tp178
a(F0.016300000000000002
F0.1501
tp179
a(F0.0143
F0.15510000000000002
tp180
a(F0.011299999999999998
F0.16510000000000002
tp181
a(F0.0143
F0.1401
tp182
a(F0.015300000000000001
F0.1501
tp183
a(F0.0143
F0.1451
tp184
a(F0.0143
F0.1301
tp185
a(F0.016300000000000002
F0.1351
tp186
a(F0.010299999999999997
F0.17010000000000003
tp187
a(F0.015300000000000001
F0.1251
tp188
a(F0.0133
F0.1451
tp189
a(F0.012299999999999998
F0.1501
tp190
a(F0.015300000000000001
F0.1401
tp191
a(F0.011299999999999998
F0.16010000000000002
tp192
a(F0.015300000000000001
F0.1351
tp193
a(F0.011299999999999998
F0.1501
tp194
a(F0.0133
F0.1301
tp195
a(F0.010299999999999997
F0.16010000000000002
tp196
a(F0.016300000000000002
F0.1401
tp197
a(F0.012299999999999998
F0.1301
tp198
a(F0.011299999999999998
F0.17010000000000003
tp199
a(F0.0133
F0.1501
tp200
a(F0.0133
F0.16010000000000002
tp201
a(F0.012299999999999998
F0.16510000000000002
tp202
a(F0.010299999999999997
F0.15510000000000002
tp203
a(F0.0143
F0.1501
tp204
a(F0.0123
F0.1301
tp205
a(F0.0133
F0.1201
tp206
a(F0.015300000000000001
F0.1451
tp207
a(F0.011299999999999998
F0.15510000000000002
tp208
a(F0.0133
F0.1251
tp209
a(F0.012299999999999998
F0.1451
tp210
a(F0.010299999999999997
F0.16510000000000002
tp211
a(F0.016300000000000002
F0.1451
tp212
a(F0.012299999999999998
F0.1401
tp213
a(F0.0123
F0.1201
tp214
a(F0.0143
F0.1351
tp215
a(F0.012299999999999998
F0.15510000000000002
tp216
a(F0.0133
F0.1351
tp217
a(F0.012299999999999998
F0.16010000000000002
tp218
a(F0.0133
F0.16510000000000002
tp219
a(F0.0143
F0.1251
tp220
a(F0.012299999999999998
F0.1251
tp221
a(F0.0143
F0.16010000000000002
tp222
a(F0.0123
F0.1251
tp223
a(F0.0133
F0.1401
tp224
a(F0.012299999999999998
F0.17010000000000003
tp225
a(F0.012299999999999998
F0.1351
tp226
a(F0.016300000000000002
F0.1301
tp227
a(F0.0133
F0.15510000000000002
tp228
a(F0.0143
F0.1201
tp229
assI3
(dp230
g2
g3
(g4
(I0
tp231
g6
tp232
Rp233
(I1
(L8L
tp234
g13
I00
S'\xa2\x91;\xcd\xf2@\x88@\xc2`\x19\x10\x82\xae\x9a@\x81N\xbd;D"\xa7@mA%\xb8\xa2\xf3\xb1@\r9Rc\xab\xec\xb6@\xfcy2*]A\xb8@\xfdSH6<\x9b\xb6@\xdf\xc4\xf5\xbcK0\xb2@'
p235
tp236
bsg18
(lp237
g20
(g13
S'Q\xaa\xa3R\xc3\xa9\x90?'
p238
tp239
Rp240
ag20
(g13
S'"\xaa\xde\xb3\x91b\xc0?'
p241
tp242
Rp243
asg27
I50
sg28
(F0.011299999999999994
F0.16300000000000003
g20
(g13
S'xT\tH\x83I\xe4@'
p244
tp245
Rp246
tp247
sg33
g20
(g13
S'\x99T\xe6\x92\x11y\xef?'
p248
tp249
Rp250
sg37
(lp251
(F0.0163
F0.128
tp252
a(F0.010299999999999993
F0.16300000000000003
tp253
a(F0.010299999999999993
F0.16800000000000004
tp254
a(F0.012299999999999995
F0.16800000000000004
tp255
a(F0.011299999999999994
F0.16800000000000004
tp256
a(F0.015299999999999998
F0.133
tp257
a(F0.011299999999999994
F0.15300000000000002
tp258
a(F0.015299999999999998
F0.128
tp259
a(F0.013299999999999996
F0.14800000000000002
tp260
a(F0.0163
F0.14800000000000002
tp261
a(F0.015299999999999998
F0.14300000000000002
tp262
a(F0.014299999999999997
F0.15800000000000003
tp263
a(F0.0163
F0.133
tp264
a(F0.012299999999999995
F0.14300000000000002
tp265
a(F0.013299999999999996
F0.15800000000000003
tp266
a(F0.014299999999999997
F0.14800000000000002
tp267
a(F0.011299999999999994
F0.16300000000000003
tp268
a(F0.012299999999999995
F0.16300000000000003
tp269
a(F0.0173
F0.128
tp270
a(F0.0143
F0.138
tp271
a(F0.011299999999999994
F0.15800000000000003
tp272
a(F0.011299999999999994
F0.14800000000000002
tp273
a(F0.012299999999999995
F0.15800000000000003
tp274
a(F0.013299999999999996
F0.16300000000000003
tp275
a(F0.013299999999999996
F0.138
tp276
a(F0.0163
F0.138
tp277
a(F0.0153
F0.138
tp278
a(F0.0153
F0.133
tp279
a(F0.0143
F0.128
tp280
a(F0.0163
F0.123
tp281
a(F0.014299999999999997
F0.14300000000000002
tp282
a(F0.014299999999999997
F0.15300000000000002
tp283
a(F0.014299999999999997
F0.133
tp284
a(F0.0173
F0.14300000000000002
tp285
a(F0.0173
F0.138
tp286
a(F0.010299999999999993
F0.15800000000000003
tp287
a(F0.015299999999999998
F0.14800000000000002
tp288
a(F0.0153
F0.128
tp289
a(F0.013299999999999996
F0.15300000000000002
tp290
a(F0.012299999999999995
F0.138
tp291
a(F0.0173
F0.133
tp292
a(F0.0163
F0.14300000000000002
tp293
a(F0.015299999999999998
F0.138
tp294
a(F0.013299999999999996
F0.14300000000000002
tp295
a(F0.012299999999999995
F0.14800000000000002
tp296
a(F0.0153
F0.123
tp297
a(F0.014299999999999997
F0.138
tp298
a(F0.0173
F0.123
tp299
a(F0.012299999999999995
F0.15300000000000002
tp300
a(F0.0143
F0.133
tp301
assI4
(dp302
g2
g3
(g4
(I0
tp303
g6
tp304
Rp305
(I1
(L8L
tp306
g13
I00
S'\xbb\x9e\xf4\xa2\xd7\x06\x86@\x10\x06\xaa\x85x\xa2\x98@\x90c\x1bh\xa8\xe8\xa6@\n\x82\xa39\xcf\xde\xb1@\xc9\x97\xc4\xa3\xbf\xf5\xb6@-\xa0~#\x04\xa9\xb8@v\xd59\t\xfa\xae\xb6@i8\xc6\x7ff\xde\xb1@'
p307
tp308
bsg18
(lp309
g20
(g13
S'C>\rJ\xc7R\x8e?'
p310
tp311
Rp312
ag20
(g13
S'\xf6o\xdc\xaf\xee\xa0\xbf?'
p313
tp314
Rp315
asg27
I55
sg28
(F0.010799999999999997
F0.16850000000000004
g20
(g13
S'PO\x0fi\x93\xf9\xe3@'
p316
tp317
Rp318
tp319
sg33
g20
(g13
S'm\x18\xbcd\x1at\xef?'
p320
tp321
Rp322
sg37
(lp323
(F0.0148
F0.14850000000000002
tp324
a(F0.012799999999999999
F0.1385
tp325
a(F0.011799999999999998
F0.17350000000000004
tp326
a(F0.0158
F0.1235
tp327
a(F0.010799999999999997
F0.14850000000000002
tp328
a(F0.012799999999999999
F0.15350000000000003
tp329
a(F0.012799999999999999
F0.14350000000000002
tp330
a(F0.017800000000000003
F0.1335
tp331
a(F0.0148
F0.14350000000000002
tp332
a(F0.012799999999999999
F0.16850000000000004
tp333
a(F0.0148
F0.1385
tp334
a(F0.012799999999999999
F0.16350000000000003
tp335
a(F0.009799999999999996
F0.17350000000000004
tp336
a(F0.0138
F0.1285
tp337
a(F0.0138
F0.15350000000000003
tp338
a(F0.011799999999999998
F0.15350000000000003
tp339
a(F0.0158
F0.1285
tp340
a(F0.0158
F0.1185
tp341
a(F0.012799999999999999
F0.14850000000000002
tp342
a(F0.011799999999999998
F0.16350000000000003
tp343
a(F0.0148
F0.1335
tp344
a(F0.010799999999999997
F0.16350000000000003
tp345
a(F0.0148
F0.1185
tp346
a(F0.010799999999999997
F0.15350000000000003
tp347
a(F0.0138
F0.14850000000000002
tp348
a(F0.011799999999999998
F0.15850000000000003
tp349
a(F0.017800000000000003
F0.1235
tp350
a(F0.0138
F0.1235
tp351
a(F0.010799999999999997
F0.17350000000000004
tp352
a(F0.009799999999999996
F0.16850000000000004
tp353
a(F0.016800000000000002
F0.1235
tp354
a(F0.010799999999999997
F0.15850000000000003
tp355
a(F0.017800000000000003
F0.1285
tp356
a(F0.0138
F0.14350000000000002
tp357
a(F0.011799999999999998
F0.16850000000000004
tp358
a(F0.0158
F0.14350000000000002
tp359
a(F0.016800000000000002
F0.14350000000000002
tp360
a(F0.0158
F0.1335
tp361
a(F0.0148
F0.1285
tp362
a(F0.0138
F0.1335
tp363
a(F0.0138
F0.15850000000000003
tp364
a(F0.010799999999999997
F0.16850000000000004
tp365
a(F0.0138
F0.1385
tp366
a(F0.011799999999999998
F0.14850000000000002
tp367
a(F0.016800000000000002
F0.1385
tp368
a(F0.0158
F0.1385
tp369
a(F0.0138
F0.1185
tp370
a(F0.0148
F0.15350000000000003
tp371
a(F0.012799999999999999
F0.15850000000000003
tp372
a(F0.009799999999999996
F0.16350000000000003
tp373
a(F0.011799999999999998
F0.14350000000000002
tp374
a(F0.0158
F0.14850000000000002
tp375
a(F0.0148
F0.1235
tp376
a(F0.016800000000000002
F0.1285
tp377
a(F0.016800000000000002
F0.1335
tp378
assI5
(dp379
g2
g3
(g4
(I0
tp380
g6
tp381
Rp382
(I1
(L8L
tp383
g13
I00
S'\xff\xbc\x1c\xc1<$\x89@<p}\xebx\x01\x9a@\x85V[l\xc4i\xa7@Z\xd7k\xd7J\xce\xb1@.\x19\xaf\xf3\x9a[\xb6@\x1a\xa7J\xdb\xeec\xb8@v\xcb\xbbw\xfd\xc2\xb6@\x94\x94aN\xd4\x95\xb2@'
p384
tp385
bsg18
(lp386
g20
(g13
S'\xfd]RRZ(\x8a?'
p387
tp388
Rp389
ag20
(g13
S'+\xe5\x89J\xbd\xb5\xbe?'
p390
tp391
Rp392
asg27
I55
sg28
(F0.012799999999999999
F0.15500000000000003
g20
(g13
S'\x03\xfcvI&\xc6\xe4@'
p393
tp394
Rp395
tp396
sg33
g20
(g13
S'\xaa\x16\x91\xa7\x81h\xef?'
p397
tp398
Rp399
sg37
(lp400
(F0.012799999999999999
F0.15500000000000003
tp401
a(F0.0148
F0.11499999999999999
tp402
a(F0.012799999999999999
F0.15000000000000002
tp403
a(F0.012799999999999999
F0.13
tp404
a(F0.0158
F0.14500000000000002
tp405
a(F0.012799999999999999
F0.125
tp406
a(F0.016800000000000002
F0.13
tp407
a(F0.0138
F0.14500000000000002
tp408
a(F0.0158
F0.15000000000000002
tp409
a(F0.016800000000000002
F0.135
tp410
a(F0.0158
F0.13
tp411
a(F0.012799999999999999
F0.11499999999999999
tp412
a(F0.0148
F0.125
tp413
a(F0.012799999999999999
F0.12
tp414
a(F0.0138
F0.12
tp415
a(F0.0128
F0.115
tp416
a(F0.0148
F0.13
tp417
a(F0.012799999999999999
F0.14
tp418
a(F0.012799999999999999
F0.16500000000000004
tp419
a(F0.0128
F0.125
tp420
a(F0.0118
F0.125
tp421
a(F0.010799999999999997
F0.15500000000000003
tp422
a(F0.012799999999999999
F0.16000000000000003
tp423
a(F0.0138
F0.115
tp424
a(F0.012799999999999999
F0.14500000000000002
tp425
a(F0.016800000000000002
F0.14
tp426
a(F0.016800000000000002
F0.125
tp427
a(F0.0128
F0.12
tp428
a(F0.0138
F0.125
tp429
a(F0.011799999999999998
F0.15500000000000003
tp430
a(F0.016800000000000002
F0.14500000000000002
tp431
a(F0.0148
F0.14
tp432
a(F0.010799999999999997
F0.16500000000000004
tp433
a(F0.0138
F0.16000000000000003
tp434
a(F0.0138
F0.13
tp435
a(F0.0138
F0.135
tp436
a(F0.0138
F0.14
tp437
a(F0.0158
F0.125
tp438
a(F0.0158
F0.12
tp439
a(F0.0118
F0.115
tp440
a(F0.011799999999999998
F0.16500000000000004
tp441
a(F0.0158
F0.14
tp442
a(F0.010799999999999997
F0.16000000000000003
tp443
a(F0.0138
F0.15500000000000003
tp444
a(F0.0148
F0.15000000000000002
tp445
a(F0.0148
F0.12
tp446
a(F0.011799999999999998
F0.16000000000000003
tp447
a(F0.0148
F0.135
tp448
a(F0.0138
F0.11499999999999999
tp449
a(F0.011799999999999998
F0.14500000000000002
tp450
a(F0.0138
F0.15000000000000002
tp451
a(F0.0118
F0.12
tp452
a(F0.0158
F0.135
tp453
a(F0.0148
F0.14500000000000002
tp454
a(F0.011799999999999998
F0.15000000000000002
tp455
assI6
(dp456
g2
g3
(g4
(I0
tp457
g6
tp458
Rp459
(I1
(L8L
tp460
g13
I00
S'M\x02\xbbn\x7fY\x87@\xcb\xca\x1a\xf4\x0bE\x99@\x9c\xba\xad\x9c\x8f{\xa6@Y\xef\xbe\x19\xc9\xb9\xb1@\xb3\xdaO(\x80\xda\xb6@ \x92\x9f\x979\xa7\xb8@\xbb\x19\xaa\xa8`\xdd\xb6@\xd0\xf4\t4"\xfb\xb1@'
p461
tp462
bsg18
(lp463
g20
(g13
S'p7\xdc\x8bCq\x8c?'
p464
tp465
Rp466
ag20
(g13
S'\xfb\xd4\xc2\x94\xcb/\xbf?'
p467
tp468
Rp469
asg27
I58
sg28
(F0.010899999999999996
F0.16680000000000003
g20
(g13
S'\xa9\x1c\xcb\x07m\x11\xe4@'
p470
tp471
Rp472
tp473
sg33
g20
(g13
S'\x92\xcc0\xf8\xfas\xef?'
p474
tp475
Rp476
sg37
(lp477
(F0.0139
F0.1368
tp478
a(F0.016900000000000002
F0.1368
tp479
a(F0.0159
F0.1418
tp480
a(F0.016900000000000002
F0.1318
tp481
a(F0.009899999999999996
F0.16680000000000003
tp482
a(F0.012899999999999998
F0.1468
tp483
a(F0.0149
F0.1168
tp484
a(F0.010899999999999996
F0.16680000000000003
tp485
a(F0.0139
F0.15180000000000002
tp486
a(F0.0159
F0.1468
tp487
a(F0.012899999999999998
F0.15680000000000002
tp488
a(F0.012899999999999998
F0.15180000000000002
tp489
a(F0.012899999999999998
F0.1418
tp490
a(F0.0159
F0.12179999999999999
tp491
a(F0.0149
F0.1418
tp492
a(F0.0159
F0.1268
tp493
a(F0.0149
F0.1218
tp494
a(F0.0139
F0.1318
tp495
a(F0.0149
F0.1368
tp496
a(F0.009899999999999996
F0.16180000000000003
tp497
a(F0.0139
F0.1418
tp498
a(F0.009899999999999996
F0.15680000000000002
tp499
a(F0.011899999999999997
F0.15180000000000002
tp500
a(F0.0159
F0.1318
tp501
a(F0.010899999999999996
F0.15180000000000002
tp502
a(F0.011899999999999997
F0.16180000000000003
tp503
a(F0.010899999999999996
F0.15680000000000002
tp504
a(F0.0139
F0.1218
tp505
a(F0.012899999999999998
F0.1318
tp506
a(F0.012899999999999998
F0.1268
tp507
a(F0.0139
F0.1268
tp508
a(F0.0129
F0.1218
tp509
a(F0.0159
F0.1368
tp510
a(F0.0149
F0.1318
tp511
a(F0.0149
F0.12179999999999999
tp512
a(F0.0159
F0.15180000000000002
tp513
a(F0.009899999999999996
F0.17180000000000004
tp514
a(F0.011899999999999997
F0.17180000000000004
tp515
a(F0.0129
F0.1168
tp516
a(F0.0139
F0.12179999999999999
tp517
a(F0.0129
F0.1268
tp518
a(F0.012899999999999998
F0.16180000000000003
tp519
a(F0.016900000000000002
F0.1268
tp520
a(F0.012899999999999998
F0.12179999999999999
tp521
a(F0.012899999999999998
F0.1368
tp522
a(F0.010899999999999996
F0.17180000000000004
tp523
a(F0.011899999999999997
F0.16680000000000003
tp524
a(F0.016900000000000002
F0.1418
tp525
a(F0.0149
F0.1268
tp526
a(F0.0139
F0.16180000000000003
tp527
a(F0.0139
F0.15680000000000002
tp528
a(F0.0139
F0.1468
tp529
a(F0.011899999999999997
F0.1468
tp530
a(F0.0149
F0.15180000000000002
tp531
a(F0.011899999999999997
F0.15680000000000002
tp532
a(F0.010899999999999996
F0.16180000000000003
tp533
a(F0.0139
F0.1168
tp534
a(F0.0149
F0.1468
tp535
assI7
(dp536
g2
g3
(g4
(I0
tp537
g6
tp538
Rp539
(I1
(L8L
tp540
g13
I00
S'\xdeu\xef\xb8Y\xeb\x88@\x1e\x81\x85\x9b\xa9\xc0\x9a@"\xdco\xac\xcf\x04\xa8@\x0fy\xbf\xf9M1\xb2@\x98"\xa1\xa6\x804\xb7@\x15L\xffL\xbdA\xb8@\xef\xe5\x9a\xe2}R\xb6@\xe0H\x97.\x1a\x96\xb1@'
p541
tp542
bsg18
(lp543
g20
(g13
S'\xc4a\xf6\x16\x96"\x8d?'
p544
tp545
Rp546
ag20
(g13
S'o\x90"\xb4]\xa7\xbf?'
p547
tp548
Rp549
asg27
I71
sg28
(F0.012199999999999999
F0.16360000000000002
g20
(g13
S'/\xccD)\xf7\x19\xe4@'
p550
tp551
Rp552
tp553
sg33
g20
(g13
S'\x0f\x92\x8f\xef\xdd`\xef?'
p554
tp555
Rp556
sg37
(lp557
(F0.016200000000000003
F0.1386
tp558
a(F0.014199999999999997
F0.1336
tp559
a(F0.016200000000000003
F0.1286
tp560
a(F0.012199999999999999
F0.16360000000000002
tp561
a(F0.0172
F0.1336
tp562
a(F0.0142
F0.1486
tp563
a(F0.016200000000000003
F0.1436
tp564
a(F0.0142
F0.1186
tp565
a(F0.0142
F0.1436
tp566
a(F0.015200000000000002
F0.15360000000000001
tp567
a(F0.012199999999999999
F0.15860000000000002
tp568
a(F0.010199999999999997
F0.16360000000000002
tp569
a(F0.015200000000000002
F0.12359999999999999
tp570
a(F0.010199999999999997
F0.15860000000000002
tp571
a(F0.0142
F0.15360000000000001
tp572
a(F0.013199999999999996
F0.1386
tp573
a(F0.015200000000000002
F0.1486
tp574
a(F0.0152
F0.1186
tp575
a(F0.0132
F0.15860000000000002
tp576
a(F0.012199999999999999
F0.1436
tp577
a(F0.013199999999999996
F0.1436
tp578
a(F0.0132
F0.1386
tp579
a(F0.0142
F0.1336
tp580
a(F0.011199999999999998
F0.16360000000000002
tp581
a(F0.015199999999999998
F0.1336
tp582
a(F0.015199999999999998
F0.1286
tp583
a(F0.011199999999999998
F0.16860000000000003
tp584
a(F0.0132
F0.1486
tp585
a(F0.015199999999999998
F0.1486
tp586
a(F0.015200000000000002
F0.1386
tp587
a(F0.012199999999999999
F0.15360000000000001
tp588
a(F0.0162
F0.1436
tp589
a(F0.014199999999999997
F0.1486
tp590
a(F0.0132
F0.15360000000000001
tp591
a(F0.0152
F0.1336
tp592
a(F0.0152
F0.1286
tp593
a(F0.012199999999999999
F0.1486
tp594
a(F0.015199999999999998
F0.1386
tp595
a(F0.0132
F0.16860000000000003
tp596
a(F0.0132
F0.1286
tp597
a(F0.015199999999999998
F0.1436
tp598
a(F0.0132
F0.12359999999999999
tp599
a(F0.015200000000000002
F0.1336
tp600
a(F0.0162
F0.1386
tp601
a(F0.0132
F0.1186
tp602
a(F0.0142
F0.1236
tp603
a(F0.011199999999999998
F0.15360000000000001
tp604
a(F0.0142
F0.1286
tp605
a(F0.0172
F0.1386
tp606
a(F0.012199999999999999
F0.16860000000000003
tp607
a(F0.0162
F0.12359999999999999
tp608
a(F0.010199999999999997
F0.15360000000000001
tp609
a(F0.0162
F0.1336
tp610
a(F0.011199999999999998
F0.15860000000000002
tp611
a(F0.011199999999999998
F0.1486
tp612
a(F0.014199999999999997
F0.1386
tp613
a(F0.0132
F0.1336
tp614
a(F0.0142
F0.1386
tp615
a(F0.0152
F0.12359999999999999
tp616
a(F0.015200000000000002
F0.1286
tp617
a(F0.0162
F0.1286
tp618
a(F0.015200000000000002
F0.1436
tp619
a(F0.0132
F0.1236
tp620
a(F0.0172
F0.1286
tp621
a(F0.016200000000000003
F0.1336
tp622
a(F0.013199999999999996
F0.1486
tp623
a(F0.0142
F0.12359999999999999
tp624
a(F0.0132
F0.16360000000000002
tp625
a(F0.0132
F0.1436
tp626
a(F0.0152
F0.1236
tp627
a(F0.014199999999999997
F0.1436
tp628
assI8
(dp629
g2
g3
(g4
(I0
tp630
g6
tp631
Rp632
(I1
(L8L
tp633
g13
I00
S'\xe2&\x1b\x136\x9c\x8b@\xa9\xc6nG\x0e5\x9c@\\\x82\x1dh\xb5\xf8\xa7@\x98\xbd\xe6Y\xe3\x18\xb2@\x13\xfeX \x86\x91\xb6@Gu\xa1 \xed\xff\xb7@\xc6`M\xa7K|\xb6@w\x85\x17#\x0cr\xb2@'
p634
tp635
bsg18
(lp636
g20
(g13
S'\xdcx\xafv^:\x8e?'
p637
tp638
Rp639
ag20
(g13
S'?@O\x1d\x05]\xc0?'
p640
tp641
Rp642
asg27
I40
sg28
(F0.012799999999999999
F0.15280000000000002
g20
(g13
S'\xb0\x9dW5\x1a\xbb\xe4@'
p643
tp644
Rp645
tp646
sg33
g20
(g13
S'\x90%\xc9\x019_\xef?'
p647
tp648
Rp649
sg37
(lp650
(F0.016800000000000002
F0.1378
tp651
a(F0.012799999999999999
F0.14780000000000001
tp652
a(F0.011799999999999998
F0.15280000000000002
tp653
a(F0.016800000000000002
F0.1428
tp654
a(F0.0138
F0.1278
tp655
a(F0.0138
F0.15780000000000002
tp656
a(F0.0138
F0.1228
tp657
a(F0.0148
F0.1428
tp658
a(F0.017800000000000003
F0.1378
tp659
a(F0.011799999999999998
F0.16280000000000003
tp660
a(F0.0158
F0.1378
tp661
a(F0.0148
F0.1378
tp662
a(F0.0138
F0.15280000000000002
tp663
a(F0.011799999999999998
F0.15780000000000002
tp664
a(F0.0148
F0.1328
tp665
a(F0.011799999999999998
F0.1428
tp666
a(F0.0138
F0.14780000000000001
tp667
a(F0.0158
F0.1328
tp668
a(F0.0158
F0.1228
tp669
a(F0.012799999999999999
F0.15280000000000002
tp670
a(F0.017800000000000003
F0.1328
tp671
a(F0.0158
F0.14780000000000001
tp672
a(F0.0158
F0.1428
tp673
a(F0.016800000000000002
F0.1278
tp674
a(F0.0138
F0.1428
tp675
a(F0.011799999999999998
F0.14780000000000001
tp676
a(F0.017800000000000003
F0.1428
tp677
a(F0.0138
F0.1378
tp678
a(F0.0148
F0.15280000000000002
tp679
a(F0.0148
F0.14780000000000001
tp680
a(F0.0148
F0.1278
tp681
a(F0.0158
F0.1278
tp682
a(F0.012799999999999999
F0.1378
tp683
a(F0.012799999999999999
F0.16280000000000003
tp684
a(F0.0148
F0.1228
tp685
a(F0.016800000000000002
F0.1328
tp686
a(F0.0138
F0.1328
tp687
a(F0.0138
F0.16280000000000003
tp688
a(F0.012799999999999999
F0.1428
tp689
a(F0.012799999999999999
F0.15780000000000002
tp690
assI9
(dp691
g2
g3
(g4
(I0
tp692
g6
tp693
Rp694
(I1
(L8L
tp695
g13
I00
S'\xba\x12\x9d\xd2!\x19\x8b@\x1bOR\xbcB\x13\x9c@\x10\xdf<\xff\x07\xe3\xa7@k\xc0\x87\xf1\x04r\xb1@\xec6\t\xe9\x02\t\xb6@{\xbf\xb6\xd2\x85\xf4\xb7@5\xd5\xf7\x8f\xea\xcc\xb6@\x16_\xc6`IQ\xb3@'
p696
tp697
bsg18
(lp698
g20
(g13
S'J\x89W\x9c\x8b\x8a\x8a?'
p699
tp700
Rp701
ag20
(g13
S'\x9a\x87\x1f9\xa4\xcc\xbe?'
p702
tp703
Rp704
asg27
I45
sg28
(F0.013999999999999999
F0.1453
g20
(g13
S'\xbdrF\xa6\x18Z\xe5@'
p705
tp706
Rp707
tp708
sg33
g20
(g13
S'\xb9\xb2u\xd3\xe8\x1d\xef?'
p709
tp710
Rp711
sg37
(lp712
(F0.014
F0.1303
tp713
a(F0.016
F0.1353
tp714
a(F0.013999999999999999
F0.1353
tp715
a(F0.013000000000000001
F0.1303
tp716
a(F0.012999999999999998
F0.1403
tp717
a(F0.015
F0.1353
tp718
a(F0.017
F0.1353
tp719
a(F0.013000000000000001
F0.1153
tp720
a(F0.012
F0.1253
tp721
a(F0.013999999999999999
F0.1453
tp722
a(F0.017
F0.1303
tp723
a(F0.014
F0.1353
tp724
a(F0.014
F0.1253
tp725
a(F0.013000000000000001
F0.1253
tp726
a(F0.017
F0.1403
tp727
a(F0.012999999999999998
F0.1453
tp728
a(F0.015
F0.1153
tp729
a(F0.012999999999999998
F0.1353
tp730
a(F0.015
F0.1403
tp731
a(F0.013
F0.1203
tp732
a(F0.016
F0.1453
tp733
a(F0.015
F0.1253
tp734
a(F0.012
F0.1153
tp735
a(F0.013999999999999999
F0.1303
tp736
a(F0.013000000000000001
F0.1353
tp737
a(F0.014
F0.1203
tp738
a(F0.015
F0.1453
tp739
a(F0.016
F0.1303
tp740
a(F0.013
F0.1253
tp741
a(F0.013999999999999999
F0.1253
tp742
a(F0.013999999999999999
F0.15030000000000002
tp743
a(F0.015
F0.1303
tp744
a(F0.012999999999999998
F0.15030000000000002
tp745
a(F0.013999999999999999
F0.1403
tp746
a(F0.014
F0.1153
tp747
a(F0.013000000000000001
F0.1203
tp748
a(F0.013000000000000001
F0.12029999999999999
tp749
a(F0.015
F0.15030000000000002
tp750
a(F0.015
F0.1203
tp751
a(F0.012
F0.1203
tp752
a(F0.016
F0.1253
tp753
a(F0.016
F0.1403
tp754
a(F0.015
F0.12029999999999999
tp755
a(F0.013
F0.1153
tp756
a(F0.014
F0.12029999999999999
tp757
ass.