(dp0
I0
(dp1
S'best_curve'
p2
cnumpy.core.multiarray
_reconstruct
p3
(cnumpy
ndarray
p4
(I0
tp5
S'b'
p6
tp7
Rp8
(I1
(L13L
tp9
cnumpy
dtype
p10
(S'f8'
p11
I0
I1
tp12
Rp13
(I3
S'<'
p14
NNNI-1
I-1
I0
tp15
bI00
S'\x1b\xb9H$\xf6\xeeh@Tl\xe0\x9e3\xaes@\xfe\xea\x05i\xc6\x1a|@\x94\x10;\x1c\xf0\xf8\x82@\xcc\xadL\xc9!:\x8b@&-\xeas\xd1\xb2\x91@XD\t\x1fJ\xa0\x95@\x9b\xee\xb0$\xd9\n\x99@\x08\x13s\xcfI\xf8\x9a@~\x8b>jon\x9c@P\x8d\xb9A_\x1a\x9b@\x1e\x8d\xac\x9a\xc4C\x98@iBbz&U\x95@'
p16
tp17
bsS'pq0'
p18
(lp19
cnumpy.core.multiarray
scalar
p20
(g13
S'\xba\x0b\x0c\x7f+\xd4\x82?'
p21
tp22
Rp23
ag20
(g13
S'\xe2\t\xe4\x9bU\x15\xb3?'
p24
tp25
Rp26
asS'steps'
p27
I36
sS'params'
p28
(F0.008199999999999999
F0.0845
g20
(g13
S'\xa2d\x8f\xffq\xe9\xd2@'
p29
tp30
Rp31
tp32
sS'fitness'
p33
g20
(g13
S'\xe5$\x82\xccX/\xee?'
p34
tp35
Rp36
sS'path'
p37
(lp38
(F0.007200000000000001
F0.0845
tp39
a(F0.006200000000000001
F0.0795
tp40
a(F0.0092
F0.06949999999999999
tp41
a(F0.0102
F0.0795
tp42
a(F0.005200000000000001
F0.0845
tp43
a(F0.008199999999999999
F0.0745
tp44
a(F0.008199999999999999
F0.0795
tp45
a(F0.0102
F0.0745
tp46
a(F0.006200000000000001
F0.08950000000000001
tp47
a(F0.0082
F0.0845
tp48
a(F0.0082
F0.08950000000000001
tp49
a(F0.0082
F0.0695
tp50
a(F0.005200000000000001
F0.09450000000000001
tp51
a(F0.0092
F0.0845
tp52
a(F0.006200000000000001
F0.0845
tp53
a(F0.008199999999999999
F0.08950000000000001
tp54
a(F0.008199999999999999
F0.06949999999999999
tp55
a(F0.007200000000000001
F0.08950000000000001
tp56
a(F0.0092
F0.0795
tp57
a(F0.006200000000000001
F0.09450000000000001
tp58
a(F0.007200000000000001
F0.0745
tp59
a(F0.005200000000000001
F0.08950000000000001
tp60
a(F0.007199999999999999
F0.0845
tp61
a(F0.0092
F0.0695
tp62
a(F0.0102
F0.06949999999999999
tp63
a(F0.007199999999999999
F0.0745
tp64
a(F0.0102
F0.0695
tp65
a(F0.007199999999999999
F0.08950000000000001
tp66
a(F0.007199999999999999
F0.0795
tp67
a(F0.0092
F0.0745
tp68
a(F0.008199999999999999
F0.0845
tp69
a(F0.007200000000000001
F0.09450000000000001
tp70
a(F0.0082
F0.0745
tp71
a(F0.0092
F0.08950000000000001
tp72
a(F0.0082
F0.0795
tp73
a(F0.007200000000000001
F0.0795
tp74
assI1
(dp75
g2
g3
(g4
(I0
tp76
g6
tp77
Rp78
(I1
(L13L
tp79
g13
I00
S'\xdaj\x16<\xc88b@\xb1KM\x87\x0b\x0fl@\xd6S\r<\x02\x9av@\x1bM\x84\xa5)\x11\x80@\xaa\xaad\x96\xc0\r\x88@!\x19\xbe\x7f\xe4\xc0\x8f@\xdez\\G\x16\xbe\x94@\xb8\xf3\xf8l\xce)\x99@\x9070)\xe2\x8e\x9b@\x16\x1b\x00<\xe2\xf8\x9c@\xd1\x84\x89C\x8b\x10\x9c@\xb3\x17\x80\xf4\xc5Y\x99@\xfb\xc4\xff\xec\xe2\xe0\x95@'
p80
tp81
bsg18
(lp82
g20
(g13
S'\xa4\xf3\xb0\x87Z\x0c\x82?'
p83
tp84
Rp85
ag20
(g13
S'>\x1e\xec\xea\xd3\xd1\xb2?'
p86
tp87
Rp88
asg27
I35
sg28
(F0.0058
F0.09350000000000001
g20
(g13
S'xQ%\xcbDL\xd2@'
p89
tp90
Rp91
tp92
sg33
g20
(g13
S'O5;\x1b\x936\xee?'
p93
tp94
Rp95
sg37
(lp96
(F0.008799999999999999
F0.0785
tp97
a(F0.0078
F0.0735
tp98
a(F0.008799999999999999
F0.08850000000000001
tp99
a(F0.0078
F0.09350000000000001
tp100
a(F0.0088
F0.0785
tp101
a(F0.0078
F0.0835
tp102
a(F0.0068
F0.08850000000000001
tp103
a(F0.0088
F0.0685
tp104
a(F0.0058
F0.09850000000000002
tp105
a(F0.0058
F0.08850000000000001
tp106
a(F0.0068
F0.0735
tp107
a(F0.0078000000000000005
F0.0735
tp108
a(F0.0068
F0.09350000000000001
tp109
a(F0.0098
F0.0835
tp110
a(F0.0098
F0.0685
tp111
a(F0.0078
F0.0785
tp112
a(F0.0048
F0.08850000000000001
tp113
a(F0.0068
F0.09850000000000002
tp114
a(F0.008799999999999999
F0.0835
tp115
a(F0.0048
F0.09850000000000002
tp116
a(F0.0088
F0.0835
tp117
a(F0.0098
F0.0735
tp118
a(F0.0058
F0.09350000000000001
tp119
a(F0.0058
F0.0835
tp120
a(F0.0098
F0.0785
tp121
a(F0.0078
F0.0685
tp122
a(F0.008799999999999999
F0.0735
tp123
a(F0.0078
F0.08850000000000001
tp124
a(F0.0068
F0.0785
tp125
a(F0.0068
F0.0835
tp126
a(F0.0048
F0.09350000000000001
tp127
a(F0.0058
F0.0785
tp128
a(F0.0078000000000000005
F0.0785
tp129
a(F0.0088
F0.0735
tp130
a(F0.0078000000000000005
F0.0835
tp131
assI2
(dp132
g2
g3
(g4
(I0
tp133
g6
tp134
Rp135
(I1
(L13L
tp136
g13
I00
S'^\x90\x97\xe1r\x17i@|\x0c;:U\x8fr@\x13n0&=\xf0{@\xf4\xd4eX\xdee\x83@\x89\x85\x02\xad\xc9/\x8b@\x1b\xf2\x8e\xe5\xe8@\x91@\xad?\xf7\xaby\xb1\x95@*\xf6H\xa8k\xfd\x98@\x84\xbc\xbe\xb6\xed\t\x9b@G\xcd\xb6\xd7\x9a\x82\x9b@vd|\xf2}\x1a\x9b@\xfc$>e@\t\x99@\xe2\xda\xc8D\xe2\xf6\x95@'
p137
tp138
bsg18
(lp139
g20
(g13
S',\xce\x97C\xf4\x14\x82?'
p140
tp141
Rp142
ag20
(g13
S'Dj2\x03\x08\xcb\xb2?'
p143
tp144
Rp145
asg27
I37
sg28
(F0.0078
F0.0834
g20
(g13
S'\xa3\x89\x0f7\x96A\xd3@'
p146
tp147
Rp148
tp149
sg33
g20
(g13
S'z\xc4.w>A\xee?'
p150
tp151
Rp152
sg37
(lp153
(F0.0058
F0.09840000000000002
tp154
a(F0.0058
F0.0834
tp155
a(F0.0098
F0.0834
tp156
a(F0.0048
F0.09340000000000001
tp157
a(F0.0068
F0.09340000000000001
tp158
a(F0.0078
F0.0784
tp159
a(F0.0088
F0.0684
tp160
a(F0.0078
F0.0884
tp161
a(F0.0078
F0.0684
tp162
a(F0.0078000000000000005
F0.0784
tp163
a(F0.0078000000000000005
F0.0834
tp164
a(F0.0098
F0.07339999999999999
tp165
a(F0.008799999999999999
F0.0834
tp166
a(F0.008799999999999999
F0.0784
tp167
a(F0.0078
F0.0734
tp168
a(F0.0088
F0.0784
tp169
a(F0.0058
F0.09340000000000001
tp170
a(F0.0068
F0.09840000000000002
tp171
a(F0.0098
F0.0784
tp172
a(F0.0078
F0.0834
tp173
a(F0.0068
F0.0884
tp174
a(F0.0088
F0.07339999999999999
tp175
a(F0.0068
F0.07339999999999999
tp176
a(F0.0078000000000000005
F0.07339999999999999
tp177
a(F0.0068
F0.0784
tp178
a(F0.0058
F0.0884
tp179
a(F0.0088
F0.0734
tp180
a(F0.008799999999999999
F0.07339999999999999
tp181
a(F0.008799999999999999
F0.0884
tp182
a(F0.0078
F0.07339999999999999
tp183
a(F0.0068
F0.0834
tp184
a(F0.0048
F0.09840000000000002
tp185
a(F0.0078
F0.09340000000000001
tp186
a(F0.0048
F0.0884
tp187
a(F0.0098
F0.0734
tp188
a(F0.0088
F0.0834
tp189
a(F0.0098
F0.0684
tp190
assI3
(dp191
g2
g3
(g4
(I0
tp192
g6
tp193
Rp194
(I1
(L13L
tp195
g13
I00
S'Zv\xd9\x11u{d@\xe6\xc17\x8d\x11\xb6n@\xe0x?>:\rw@2\xf7\x7f\xf3p\x01\x81@\x05\x8d\xf0\xdf\\\t\x89@h\x95V\xbf\xd6D\x90@\xe2\x85\xf1\xfb\x8c;\x94@\xcf\xcc\x03\x99P\x83\x98@\x98\xae\x86\xe0Q\x1b\x9b@\xcc\x90\x89\xa2\x04\xe4\x9c@\xc4\xe9\xb3\x08\t\x10\x9c@\xae\xa3T\x87v\xe0\x99@\xa1"\x08\x9b\x85T\x96@'
p196
tp197
bsg18
(lp198
g20
(g13
S'\xf6\xf03;\xf7\xcf\x82?'
p199
tp200
Rp201
ag20
(g13
S']!\x84>\xe2\xcb\xb2?'
p202
tp203
Rp204
asg27
I39
sg28
(F0.006200000000000001
F0.0884
g20
(g13
S'<Z\xdc\xbd\xed\x06\xd3@'
p205
tp206
Rp207
tp208
sg33
g20
(g13
S'\xc0\x87\x8d\n\xf2A\xee?'
p209
tp210
Rp211
sg37
(lp212
(F0.0092
F0.0684
tp213
a(F0.0082
F0.0834
tp214
a(F0.007200000000000001
F0.09840000000000002
tp215
a(F0.0092
F0.08340000000000002
tp216
a(F0.006200000000000001
F0.0834
tp217
a(F0.0092
F0.07339999999999999
tp218
a(F0.0082
F0.0784
tp219
a(F0.007199999999999999
F0.0734
tp220
a(F0.007199999999999999
F0.08340000000000002
tp221
a(F0.0102
F0.0684
tp222
a(F0.008199999999999999
F0.08340000000000002
tp223
a(F0.007200000000000001
F0.07339999999999999
tp224
a(F0.005200000000000001
F0.09840000000000002
tp225
a(F0.0092
F0.0734
tp226
a(F0.007200000000000001
F0.0834
tp227
a(F0.007200000000000001
F0.09340000000000001
tp228
a(F0.0082
F0.07339999999999999
tp229
a(F0.005200000000000001
F0.0834
tp230
a(F0.0082
F0.0884
tp231
a(F0.0092
F0.0834
tp232
a(F0.006200000000000001
F0.09840000000000002
tp233
a(F0.0102
F0.07840000000000001
tp234
a(F0.007199999999999999
F0.07840000000000001
tp235
a(F0.0092
F0.0784
tp236
a(F0.0082
F0.0734
tp237
a(F0.0102
F0.0734
tp238
a(F0.006200000000000001
F0.0884
tp239
a(F0.008199999999999999
F0.07840000000000001
tp240
a(F0.006200000000000001
F0.0784
tp241
a(F0.008199999999999999
F0.0684
tp242
a(F0.005200000000000001
F0.09340000000000001
tp243
a(F0.0102
F0.0784
tp244
a(F0.008199999999999999
F0.0734
tp245
a(F0.0082
F0.0684
tp246
a(F0.007200000000000001
F0.0884
tp247
a(F0.0092
F0.07840000000000001
tp248
a(F0.006200000000000001
F0.09340000000000001
tp249
a(F0.007200000000000001
F0.0784
tp250
a(F0.005200000000000001
F0.0884
tp251
assI4
(dp252
g2
g3
(g4
(I0
tp253
g6
tp254
Rp255
(I1
(L13L
tp256
g13
I00
S"?,v\xebrBe@MdF\xf2VLp@\x1f4\x14\r\x07\x99y@\xbd\xf2d\x01\xff\xcb\x82@~\xd8bK\xaf'\x8a@\x1eC7M\xb7\xb7\x90@q\x85w\x8b\x03\xeb\x94@\xf6X\xabd\xd1\xda\x98@ \xc7\\{$\xb1\x9b@\xf3\xc1\xc6S}&\x9c@\xc3o\x9f4)\xdf\x9b@1\xae\xeem\x1e\xdd\x98@\xad'L\x8c\xfd\xa9\x95@"
p257
tp258
bsg18
(lp259
g20
(g13
S'\x18weI%\x1a\x82?'
p260
tp261
Rp262
ag20
(g13
S'\xe8\x15\xf4;\xfd\x9e\xb2?'
p263
tp264
Rp265
asg27
I37
sg28
(F0.0068
F0.08770000000000001
g20
(g13
S'\xe2HJ\xb7\x96\xb9\xd2@'
p266
tp267
Rp268
tp269
sg33
g20
(g13
S'2\xaf\n\xd5\x05:\xee?'
p270
tp271
Rp272
sg37
(lp273
(F0.0058
F0.09770000000000002
tp274
a(F0.0058
F0.08770000000000001
tp275
a(F0.008799999999999999
F0.0777
tp276
a(F0.0068
F0.0727
tp277
a(F0.0078
F0.0727
tp278
a(F0.0088
F0.0727
tp279
a(F0.0078
F0.0777
tp280
a(F0.0078
F0.0677
tp281
a(F0.008799999999999999
F0.08770000000000001
tp282
a(F0.0048
F0.09270000000000002
tp283
a(F0.0098
F0.0677
tp284
a(F0.0068
F0.0777
tp285
a(F0.0068000000000000005
F0.0727
tp286
a(F0.0058
F0.09270000000000002
tp287
a(F0.0058
F0.08270000000000001
tp288
a(F0.0048
F0.09770000000000002
tp289
a(F0.0088
F0.08270000000000001
tp290
a(F0.0098
F0.0727
tp291
a(F0.0068000000000000005
F0.0777
tp292
a(F0.0068
F0.08270000000000001
tp293
a(F0.008799999999999999
F0.0727
tp294
a(F0.0068000000000000005
F0.08270000000000001
tp295
a(F0.0078
F0.08770000000000001
tp296
a(F0.008799999999999999
F0.08270000000000001
tp297
a(F0.0088
F0.0677
tp298
a(F0.0078000000000000005
F0.0727
tp299
a(F0.0088
F0.0777
tp300
a(F0.0078000000000000005
F0.0777
tp301
a(F0.0098
F0.08270000000000001
tp302
a(F0.0078000000000000005
F0.08270000000000001
tp303
a(F0.0048
F0.08770000000000001
tp304
a(F0.0068
F0.09770000000000002
tp305
a(F0.0098
F0.0777
tp306
a(F0.0068
F0.08770000000000001
tp307
a(F0.0078
F0.09270000000000002
tp308
a(F0.0068
F0.09270000000000002
tp309
a(F0.0078
F0.08270000000000001
tp310
assI5
(dp311
g2
g3
(g4
(I0
tp312
g6
tp313
Rp314
(I1
(L13L
tp315
g13
I00
S"I\x7f\xf5\xf3\x86\x1bb@S\xd7\x87\x0b\xe8)n@\x8b\xb6\x0f\xde\r\xd5v@\x0b)\xb2rd\xe7\x81@\xa7\xab\xd5\xab\x19\xc2\x88@UE\xffbB$\x91@1\xc5\xe1);3\x95@\xff\xc95\xb6\xef\x8b\x99@\xa9}L\xae\x99\x1a\x9c@NO5\x96b\xa4\x9c@te7\x15\x02\x99\x9b@\x9f\xf5\x82J\xbfe\x98@$\xd2.v'\xd3\x94@"
p316
tp317
bsg18
(lp318
g20
(g13
S'\r\x17\xc3\x19X\xd6\x82?'
p319
tp320
Rp321
ag20
(g13
S'LHm\xa4\xc7\xba\xb2?'
p322
tp323
Rp324
asg27
I32
sg28
(F0.006200000000000001
F0.09320000000000002
g20
(g13
S'\xc7\xef\xe99\xe4.\xd2@'
p325
tp326
Rp327
tp328
sg33
g20
(g13
S'\xc51%\xfc\xeb6\xee?'
p329
tp330
Rp331
sg37
(lp332
(F0.007200000000000001
F0.08820000000000001
tp333
a(F0.007200000000000001
F0.09820000000000002
tp334
a(F0.0102
F0.0682
tp335
a(F0.0092
F0.0682
tp336
a(F0.008199999999999999
F0.0732
tp337
a(F0.005200000000000001
F0.09320000000000002
tp338
a(F0.0082
F0.08820000000000001
tp339
a(F0.005200000000000001
F0.09820000000000002
tp340
a(F0.0092
F0.0782
tp341
a(F0.007200000000000001
F0.08320000000000001
tp342
a(F0.0102
F0.0782
tp343
a(F0.0092
F0.08820000000000001
tp344
a(F0.006200000000000001
F0.09820000000000002
tp345
a(F0.0092
F0.0732
tp346
a(F0.0102
F0.0732
tp347
a(F0.0082
F0.0732
tp348
a(F0.0082
F0.0782
tp349
a(F0.007200000000000001
F0.0732
tp350
a(F0.006200000000000001
F0.09320000000000002
tp351
a(F0.0082
F0.09320000000000002
tp352
a(F0.0092
F0.08320000000000001
tp353
a(F0.006200000000000001
F0.08820000000000001
tp354
a(F0.0082
F0.08320000000000001
tp355
a(F0.006200000000000001
F0.08320000000000001
tp356
a(F0.006200000000000001
F0.0782
tp357
a(F0.008199999999999999
F0.08320000000000001
tp358
a(F0.0102
F0.08320000000000001
tp359
a(F0.005200000000000001
F0.08820000000000001
tp360
a(F0.008199999999999999
F0.0782
tp361
a(F0.007200000000000001
F0.0782
tp362
a(F0.0082
F0.0682
tp363
a(F0.007200000000000001
F0.09320000000000002
tp364
assI6
(dp365
g2
g3
(g4
(I0
tp366
g6
tp367
Rp368
(I1
(L13L
tp369
g13
I00
S'd\x97\xa6\x7f\xd8\xd9c@\x01\x82\x1eR\xac\x01q@\xcd?\xf5\x80C\xb9x@;\xcd\xef\xfc\xee\xf5\x81@p\\|\xc1\x0b\x84\x89@#\xa0\xfb\x8a\xf6\xd8\x90@\x19\x9c)3\xb3{\x95@\xcf\x8a.\xe3d\xc9\x98@,\x8d\xe4\xfdkf\x9b@ \xedu\xfcv\x86\x9c@))\x98%\xeaP\x9b@\xfa\xe7\xc2\xb7Y\x1c\x99@E\xf9\xbd\x07\xa8\xce\x95@'
p370
tp371
bsg18
(lp372
g20
(g13
S'\xa2*=\xf7D\xf3\x81?'
p373
tp374
Rp375
ag20
(g13
S't3\x91q\xc0\xd9\xb2?'
p376
tp377
Rp378
asg27
I34
sg28
(F0.0068000000000000005
F0.08860000000000001
g20
(g13
S'\xde\xe9v=\xb7\xc0\xd2@'
p379
tp380
Rp381
tp382
sg33
g20
(g13
S'l=\x14%X9\xee?'
p383
tp384
Rp385
sg37
(lp386
(F0.0078000000000000005
F0.0786
tp387
a(F0.0068000000000000005
F0.0786
tp388
a(F0.0078000000000000005
F0.0736
tp389
a(F0.007799999999999999
F0.0786
tp390
a(F0.0058000000000000005
F0.09360000000000002
tp391
a(F0.0068000000000000005
F0.08360000000000001
tp392
a(F0.0078000000000000005
F0.08360000000000001
tp393
a(F0.0058000000000000005
F0.08360000000000001
tp394
a(F0.0068
F0.0786
tp395
a(F0.0098
F0.0786
tp396
a(F0.0088
F0.0786
tp397
a(F0.0068000000000000005
F0.09360000000000002
tp398
a(F0.0078
F0.08360000000000001
tp399
a(F0.0098
F0.0686
tp400
a(F0.008799999999999999
F0.08360000000000001
tp401
a(F0.007799999999999999
F0.0736
tp402
a(F0.0068000000000000005
F0.08860000000000001
tp403
a(F0.0068
F0.0736
tp404
a(F0.0088
F0.0686
tp405
a(F0.0058000000000000005
F0.08860000000000001
tp406
a(F0.008799999999999999
F0.0736
tp407
a(F0.0078
F0.0736
tp408
a(F0.0078000000000000005
F0.09360000000000002
tp409
a(F0.007799999999999999
F0.08360000000000001
tp410
a(F0.0088
F0.08360000000000001
tp411
a(F0.0078
F0.0786
tp412
a(F0.0088
F0.0736
tp413
a(F0.0098
F0.0736
tp414
a(F0.0068
F0.08360000000000001
tp415
a(F0.008799999999999999
F0.0786
tp416
a(F0.0088
F0.08860000000000001
tp417
a(F0.0078000000000000005
F0.08860000000000001
tp418
a(F0.0098
F0.08360000000000001
tp419
a(F0.0078
F0.0686
tp420
assI7
(dp421
g2
g3
(g4
(I0
tp422
g6
tp423
Rp424
(I1
(L13L
tp425
g13
I00
S"\xe4\r\x02d\xdfKf@\x9fs\x9e\xbdb\xcep@\xa7\x1d<\xea\xc0\x10y@]5q\xe3\xd9\xb7\x82@\x13\xf7T\xb1m\xe1\x89@\x9cL\x18T\xb2@\x91@\xd8\x9158\x0e=\x95@\x9e\xa8N \xa6\xa7\x98@\x99\xe8\xad\xd7\xb6\xb7\x9b@'h\xbcm^9\x9c@\xb2\xd9\x0c@\x99o\x9b@\x96:@\xb8A\xe4\x98@\x98\xb3X\x02}\x9e\x95@"
p426
tp427
bsg18
(lp428
g20
(g13
S'\x95\xaa\xf8> K\x82?'
p429
tp430
Rp431
ag20
(g13
S'\xf6\x81\xbec\x80\x87\xb2?'
p432
tp433
Rp434
asg27
I36
sg28
(F0.006900000000000001
F0.0874
g20
(g13
S'\xaeV\xf5|\xeb\xba\xd2@'
p435
tp436
Rp437
tp438
sg33
g20
(g13
S'\x8d\x02v\x84\x000\xee?'
p439
tp440
Rp441
sg37
(lp442
(F0.006900000000000001
F0.09740000000000001
tp443
a(F0.006900000000000001
F0.07239999999999999
tp444
a(F0.006900000000000001
F0.0874
tp445
a(F0.0079
F0.07239999999999999
tp446
a(F0.009899999999999999
F0.0824
tp447
a(F0.0099
F0.0674
tp448
a(F0.0089
F0.0774
tp449
a(F0.0089
F0.07239999999999999
tp450
a(F0.006900000000000001
F0.09240000000000001
tp451
a(F0.009899999999999999
F0.07239999999999999
tp452
a(F0.004900000000000001
F0.0874
tp453
a(F0.006900000000000001
F0.0824
tp454
a(F0.005900000000000001
F0.0874
tp455
a(F0.0079
F0.09240000000000001
tp456
a(F0.0079
F0.0674
tp457
a(F0.005900000000000001
F0.09740000000000001
tp458
a(F0.009899999999999999
F0.0774
tp459
a(F0.0079
F0.0874
tp460
a(F0.005900000000000001
F0.0774
tp461
a(F0.005900000000000001
F0.09240000000000001
tp462
a(F0.004900000000000001
F0.09240000000000001
tp463
a(F0.0099
F0.0774
tp464
a(F0.0099
F0.0724
tp465
a(F0.008900000000000002
F0.07239999999999999
tp466
a(F0.008900000000000002
F0.0824
tp467
a(F0.0079
F0.0774
tp468
a(F0.0079
F0.0724
tp469
a(F0.006900000000000001
F0.0774
tp470
a(F0.005900000000000001
F0.0824
tp471
a(F0.008900000000000002
F0.0874
tp472
a(F0.0089
F0.0674
tp473
a(F0.0089
F0.0824
tp474
a(F0.008900000000000002
F0.0774
tp475
a(F0.004900000000000001
F0.09740000000000001
tp476
a(F0.0079
F0.0824
tp477
a(F0.0089
F0.0724
tp478
assI8
(dp479
g2
g3
(g4
(I0
tp480
g6
tp481
Rp482
(I1
(L13L
tp483
g13
I00
S'\x0c\xb5\x01(\xfe\xafe@&::=%\x00q@-\x80\x1e\x1f\x11\x1fz@}\xea\x9dd\x82\xb1\x82@z*I\xb2p\x1a\x8a@A\xca\xdd\xc4\x0c\x18\x91@t\x01\x97\xbd\xa3>\x95@\x8d\x1fI\xf1\xa3\x8f\x99@\xa8\x08\xbbIv?\x9b@\xa9\xfc\xb3\xd2n\x10\x9c@%\xb5\xe5i\x98V\x9b@\t\xd8z\x88\xcd\xd5\x98@\x86\xd2\x08\x07\x1a\xbd\x95@'
p484
tp485
bsg18
(lp486
g20
(g13
S'\xc4\xd0\xd4/U\xf6\x81?'
p487
tp488
Rp489
ag20
(g13
S'M\xfd~\x94\x1e\x86\xb2?'
p490
tp491
Rp492
asg27
I42
sg28
(F0.0068000000000000005
F0.0874
g20
(g13
S'\x9a\te-p\xd3\xd2@'
p493
tp494
Rp495
tp496
sg33
g20
(g13
S'cx\x9d?/h\xee?'
p497
tp498
Rp499
sg37
(lp500
(F0.0078000000000000005
F0.0874
tp501
a(F0.0068
F0.07239999999999999
tp502
a(F0.0098
F0.0824
tp503
a(F0.0058000000000000005
F0.09240000000000001
tp504
a(F0.0088
F0.0724
tp505
a(F0.0088
F0.0774
tp506
a(F0.0068000000000000005
F0.0774
tp507
a(F0.0088
F0.0874
tp508
a(F0.0058
F0.0824
tp509
a(F0.0068
F0.0874
tp510
a(F0.0078
F0.0674
tp511
a(F0.0068000000000000005
F0.0824
tp512
a(F0.0058000000000000005
F0.0824
tp513
a(F0.0088
F0.0674
tp514
a(F0.0068000000000000005
F0.09240000000000001
tp515
a(F0.0078
F0.0874
tp516
a(F0.0068
F0.0774
tp517
a(F0.0098
F0.0774
tp518
a(F0.0068
F0.0824
tp519
a(F0.0098
F0.0724
tp520
a(F0.008799999999999999
F0.0874
tp521
a(F0.008799999999999999
F0.0774
tp522
a(F0.0088
F0.0824
tp523
a(F0.0078
F0.0724
tp524
a(F0.0078
F0.0774
tp525
a(F0.0088
F0.07239999999999999
tp526
a(F0.0078
F0.09240000000000001
tp527
a(F0.0078000000000000005
F0.0824
tp528
a(F0.0058
F0.09240000000000001
tp529
a(F0.0068000000000000005
F0.0874
tp530
a(F0.0068
F0.09240000000000001
tp531
a(F0.0078000000000000005
F0.07239999999999999
tp532
a(F0.0058
F0.0874
tp533
a(F0.008799999999999999
F0.0824
tp534
a(F0.0058000000000000005
F0.0874
tp535
a(F0.0078000000000000005
F0.09240000000000001
tp536
a(F0.008799999999999999
F0.07239999999999999
tp537
a(F0.0098
F0.07239999999999999
tp538
a(F0.0098
F0.0674
tp539
a(F0.0078
F0.07239999999999999
tp540
a(F0.0078000000000000005
F0.0774
tp541
a(F0.0078
F0.0824
tp542
assI9
(dp543
g2
g3
(g4
(I0
tp544
g6
tp545
Rp546
(I1
(L13L
tp547
g13
I00
S'"\x94\xf7\x08\x8efc@\x11\xf7\xd2\xc4\xbe\x1en@\r\x1d\xee\x01qXw@\xe9416\xd4\xf2\x80@\xc1\x9f\xe6ga2\x88@5\xb28\xd0\xe3\x18\x90@C\x05m"Te\x94@\xbf\xd7\x04\x94\xca\xa7\x98@\xdft\x1cV\xa1L\x9b@\x8c\x1a\x05X\xf5\x84\x9c@\x00\x08_G\xc8\xed\x9b@\x8fG+\xef\xab:\x9a@.\x84\x8eJ\x87S\x96@'
p548
tp549
bsg18
(lp550
g20
(g13
S'u\xad\xfacJ\x18\x81?'
p551
tp552
Rp553
ag20
(g13
S'N\xa3\xf7\xf0\x10\x1e\xb3?'
p554
tp555
Rp556
asg27
I30
sg28
(F0.0063
F0.0897
g20
(g13
S'f\xc5\xd5\xaa1\xbc\xd2@'
p557
tp558
Rp559
tp560
sg33
g20
(g13
S'\x15\x87\x11\xea},\xee?'
p561
tp562
Rp563
sg37
(lp564
(F0.0053
F0.0847
tp565
a(F0.0093
F0.0697
tp566
a(F0.0073
F0.0747
tp567
a(F0.0063
F0.0797
tp568
a(F0.0053
F0.0897
tp569
a(F0.0063
F0.0947
tp570
a(F0.0083
F0.07970000000000001
tp571
a(F0.0083
F0.0897
tp572
a(F0.0063
F0.07469999999999999
tp573
a(F0.0073
F0.0847
tp574
a(F0.0083
F0.0697
tp575
a(F0.0073
F0.0947
tp576
a(F0.0093
F0.0797
tp577
a(F0.0063
F0.0897
tp578
a(F0.0073
F0.0697
tp579
a(F0.0083
F0.07469999999999999
tp580
a(F0.0053
F0.0947
tp581
a(F0.0093
F0.07970000000000001
tp582
a(F0.0073
F0.09970000000000001
tp583
a(F0.0093
F0.0747
tp584
a(F0.0073
F0.0797
tp585
a(F0.0063
F0.0847
tp586
a(F0.0063
F0.09970000000000001
tp587
a(F0.0083
F0.0797
tp588
a(F0.0073
F0.07469999999999999
tp589
a(F0.0073
F0.07970000000000001
tp590
a(F0.0083
F0.0747
tp591
a(F0.0083
F0.0847
tp592
a(F0.0073
F0.0897
tp593
a(F0.0053
F0.09970000000000001
tp594
ass.