(dp0
I0
(dp1
S'best_curve'
p2
cnumpy.core.multiarray
_reconstruct
p3
(cnumpy
ndarray
p4
(I0
tp5
S'b'
p6
tp7
Rp8
(I1
(L13L
tp9
cnumpy
dtype
p10
(S'f8'
p11
I0
I1
tp12
Rp13
(I3
S'<'
p14
NNNI-1
I-1
I0
tp15
bI00
S"D\x189\x9f\xad\xe8o@)%4\xcdlBv@\x80 \x89$\x8dg\x7f@\xa39'\x87\xf8R\x84@[\x83Id\x07Z\x89@\x06\xf9M1\xfe\xc6\x8f@\xe3`\xb8SA\x9a\x92@\x1c\xc4\xca\x8a\x84\xb4\x94@\xcf\x9e8\x8cP\xa0\x95@^\xaa0\n\nH\x96@\xce\x05\xf4K\x1at\x95@\xb2;{h\xb02\x94@\t\xe8\xb3^\xf3\xd2\x91@"
p16
tp17
bsS'pq0'
p18
(lp19
cnumpy.core.multiarray
scalar
p20
(g13
S'\xbf\xe70\xff\xbf&\x86?'
p21
tp22
Rp23
ag20
(g13
S'Kg\xe5h\x8f\x15\xb0?'
p24
tp25
Rp26
asS'steps'
p27
I21
sS'params'
p28
(F0.0118
F0.0678
g20
(g13
S'\x03\x84\xa1]\x1a"\xd1@'
p29
tp30
Rp31
tp32
sS'fitness'
p33
g20
(g13
S'\x1eq$;p\xbf\xed?'
p34
tp35
Rp36
sS'path'
p37
(lp38
(F0.0098
F0.0578
tp39
a(F0.011800000000000001
F0.07780000000000001
tp40
a(F0.0108
F0.07780000000000001
tp41
a(F0.0098
F0.07780000000000001
tp42
a(F0.0098
F0.0728
tp43
a(F0.0118
F0.0628
tp44
a(F0.012799999999999999
F0.0728
tp45
a(F0.011800000000000001
F0.0728
tp46
a(F0.0108
F0.0728
tp47
a(F0.011800000000000001
F0.0678
tp48
a(F0.0108
F0.0678
tp49
a(F0.011800000000000001
F0.0628
tp50
a(F0.0118
F0.0578
tp51
a(F0.0118
F0.0728
tp52
a(F0.012799999999999999
F0.0678
tp53
a(F0.0098
F0.0628
tp54
a(F0.0108
F0.0628
tp55
a(F0.012799999999999999
F0.0628
tp56
a(F0.0098
F0.0678
tp57
a(F0.0108
F0.0578
tp58
a(F0.0118
F0.0678
tp59
assI1
(dp60
g2
g3
(g4
(I0
tp61
g6
tp62
Rp63
(I1
(L13L
tp64
g13
I00
S'\xa9+\x94\r\xf3Oo@Fr\xc0\x14c\xffu@< \x0f\x13u\xad}@\x1d9\xb5{dy\x83@PjR\x9ec\t\x89@\xe3Z$4]\x92\x8e@c\x0b/\xdd\xe3\x95\x92@\x86\xc8T\x04\x80\x00\x95@\x9b9*\xa4\x98\xc1\x95@\xe6\x07mJ\x18c\x96@g\x87\xdb\xf4\x81\x84\x95@u\xd3d\xd6\xc9Z\x94@\xc1\xa1\xe0\xd6\r)\x92@'
p65
tp66
bsg18
(lp67
g20
(g13
S'Fh\x8dg\x047\x88?'
p68
tp69
Rp70
ag20
(g13
S'\x06\xb8\xbc\xab8"\xb0?'
p71
tp72
Rp73
asg27
I23
sg28
(F0.0118
F0.068
g20
(g13
S'N\xc48\xbc\x8c$\xd1@'
p74
tp75
Rp76
tp77
sg33
g20
(g13
S'\xa5\xc7\xb1\x05\x8d\xf5\xed?'
p78
tp79
Rp80
sg37
(lp81
(F0.012799999999999999
F0.063
tp82
a(F0.0108
F0.07800000000000001
tp83
a(F0.0098
F0.07800000000000001
tp84
a(F0.0108
F0.07300000000000001
tp85
a(F0.0118
F0.058
tp86
a(F0.0098
F0.07300000000000001
tp87
a(F0.0128
F0.063
tp88
a(F0.0118
F0.068
tp89
a(F0.012799999999999999
F0.068
tp90
a(F0.0108
F0.068
tp91
a(F0.0118
F0.07300000000000001
tp92
a(F0.0108
F0.063
tp93
a(F0.011800000000000001
F0.063
tp94
a(F0.011800000000000001
F0.07300000000000001
tp95
a(F0.0128
F0.058
tp96
a(F0.0098
F0.063
tp97
a(F0.011800000000000001
F0.07800000000000001
tp98
a(F0.0118
F0.063
tp99
a(F0.0128
F0.068
tp100
a(F0.0108
F0.058
tp101
a(F0.012799999999999999
F0.07300000000000001
tp102
a(F0.0098
F0.068
tp103
a(F0.011800000000000001
F0.068
tp104
assI2
(dp105
g2
g3
(g4
(I0
tp106
g6
tp107
Rp108
(I1
(L13L
tp109
g13
I00
S'[O6z\xde4n@\xf2\xc2"F~/v@\x8c\xf7b\x01\xec\\~@N\xdb\xf3\xcc\x84I\x84@\'\x90\x1d\xf1\xf0x\x8a@^y\xdc\xdfm\xdd\x8f@\xc5\\.\xca\xd9K\x93@\x163\xa2I\x03\xc0\x95@\x14\x9f[\xbe\x87K\x96@\xb4U\xf3@/B\x96@y\xa4\x97\xddR\xb2\x94@\xe9\xd3\x9e^!#\x93@\x1b#\xcc\xd4Y\xd4\x90@'
p110
tp111
bsg18
(lp112
g20
(g13
S'\xe2;R\xef\x1e\xde\x87?'
p113
tp114
Rp115
ag20
(g13
S"'\x11\xe1\xe8y\xf0\xaf?"
p116
tp117
Rp118
asg27
I21
sg28
(F0.0117
F0.0724
g20
(g13
S'v\x1a\x01\xd6+L\xd0@'
p119
tp120
Rp121
tp122
sg33
g20
(g13
S'\xdc`8[\xdf\xc6\xed?'
p123
tp124
Rp125
sg37
(lp126
(F0.0127
F0.0674
tp127
a(F0.0127
F0.062400000000000004
tp128
a(F0.0127
F0.0724
tp129
a(F0.010700000000000001
F0.07740000000000001
tp130
a(F0.0127
F0.0574
tp131
a(F0.0107
F0.0674
tp132
a(F0.0117
F0.0624
tp133
a(F0.0117
F0.0574
tp134
a(F0.0117
F0.0724
tp135
a(F0.010700000000000001
F0.0724
tp136
a(F0.0117
F0.062400000000000004
tp137
a(F0.0107
F0.0574
tp138
a(F0.010700000000000001
F0.0624
tp139
a(F0.0127
F0.0624
tp140
a(F0.010700000000000001
F0.0674
tp141
a(F0.0117
F0.0674
tp142
a(F0.0117
F0.07740000000000001
tp143
a(F0.0107
F0.0624
tp144
a(F0.0127
F0.07740000000000001
tp145
a(F0.010700000000000001
F0.0574
tp146
a(F0.010700000000000001
F0.062400000000000004
tp147
assI3
(dp148
g2
g3
(g4
(I0
tp149
g6
tp150
Rp151
(I1
(L13L
tp152
g13
I00
S'&C\xe0\xa35\x93m@T[\x95\x91\xe6Cu@*V(Z\xb6\xf7}@\xa2\xaf\xb8Us{\x83@}{\xeb)\xees\x89@(\xbb\x9d\xab\xd2\xe0\x8e@\x191\xc7\xca\xb1\xa1\x92@\x00"\x13\x05n\xf6\x94@\xd1g\xa9\xc4B\x1c\x96@KVY\xfa\xcf\n\x96@\x92a\x1f\xab\x14\xb0\x95@2>\x02\xbf\x99\x13\x94@\xf4\x16$\xd0\x80\x17\x92@'
p153
tp154
bsg18
(lp155
g20
(g13
S'bb\x85\xcbg\xcc\x86?'
p156
tp157
Rp158
ag20
(g13
S'+\x8e\xc7\xb7\xc0~\xae?'
p159
tp160
Rp161
asg27
I39
sg28
(F0.011099999999999999
F0.06960000000000001
g20
(g13
S'\xdf\x1c1\x92\x19\n\xd1@'
p162
tp163
Rp164
tp165
sg33
g20
(g13
S'\xe5\\&6\x88\x07\xee?'
p166
tp167
Rp168
sg37
(lp169
(F0.0091
F0.06960000000000001
tp170
a(F0.0091
F0.07460000000000001
tp171
a(F0.0121
F0.06960000000000001
tp172
a(F0.011100000000000002
F0.07960000000000002
tp173
a(F0.0121
F0.05960000000000001
tp174
a(F0.0101
F0.0646
tp175
a(F0.011100000000000002
F0.06960000000000001
tp176
a(F0.0121
F0.0646
tp177
a(F0.0111
F0.0646
tp178
a(F0.010100000000000001
F0.07460000000000001
tp179
a(F0.012100000000000003
F0.07460000000000001
tp180
a(F0.010099999999999998
F0.06960000000000001
tp181
a(F0.012100000000000003
F0.06960000000000001
tp182
a(F0.0131
F0.0646
tp183
a(F0.011099999999999999
F0.05960000000000001
tp184
a(F0.0091
F0.07960000000000002
tp185
a(F0.010100000000000001
F0.07960000000000002
tp186
a(F0.0111
F0.0596
tp187
a(F0.0101
F0.0546
tp188
a(F0.010100000000000001
F0.05960000000000001
tp189
a(F0.011099999999999999
F0.07460000000000001
tp190
a(F0.011099999999999999
F0.0646
tp191
a(F0.0121
F0.07460000000000001
tp192
a(F0.0111
F0.0546
tp193
a(F0.0131
F0.06960000000000001
tp194
a(F0.010100000000000001
F0.06960000000000001
tp195
a(F0.0111
F0.07460000000000001
tp196
a(F0.010099999999999998
F0.07460000000000001
tp197
a(F0.010100000000000001
F0.0646
tp198
a(F0.011100000000000002
F0.07460000000000001
tp199
a(F0.0131
F0.05960000000000001
tp200
a(F0.0121
F0.0596
tp201
a(F0.0111
F0.05960000000000001
tp202
a(F0.0111
F0.06960000000000001
tp203
a(F0.011099999999999999
F0.06960000000000001
tp204
a(F0.0101
F0.0596
tp205
a(F0.010099999999999998
F0.0646
tp206
a(F0.0121
F0.0546
tp207
a(F0.012100000000000003
F0.07960000000000002
tp208
assI4
(dp209
g2
g3
(g4
(I0
tp210
g6
tp211
Rp212
(I1
(L13L
tp213
g13
I00
S'\x82\\\x1d\xbc4#n@\xf0_:}j\x80u@\x8eZ9(\x13J}@\xe7[t\xef\xa4\xbe\x83@\xd3\x96\xc2r\x91!\x89@\xd4\x00\t\x9c\x1e\xc1\x8e@\xfa\xb5\x9fz_n\x92@<F]\xfd\xb4q\x94@=\x8f/\xbcN\xd4\x95@9y\x1d\xcb\x98`\x96@b\xd5*P\xf7\xf8\x95@\xce\\g\x86t#\x94@\x93A\xa0\xa4$j\x92@'
p214
tp215
bsg18
(lp216
g20
(g13
S'\x1bZR\x95a\xed\x88?'
p217
tp218
Rp219
ag20
(g13
S'\xa4v\xef\x99\x8d2\xb0?'
p220
tp221
Rp222
asg27
I24
sg28
(F0.011200000000000002
F0.0683
g20
(g13
S'\xfe\xf8\xc7\x17\x126\xd1@'
p223
tp224
Rp225
tp226
sg33
g20
(g13
S'{\xb3[l\x8a\xce\xed?'
p227
tp228
Rp229
sg37
(lp230
(F0.0132
F0.0733
tp231
a(F0.0122
F0.07830000000000001
tp232
a(F0.012200000000000003
F0.0733
tp233
a(F0.0102
F0.0683
tp234
a(F0.011200000000000002
F0.0583
tp235
a(F0.0102
F0.0633
tp236
a(F0.011200000000000002
F0.0633
tp237
a(F0.011200000000000002
F0.07830000000000001
tp238
a(F0.011200000000000002
F0.0733
tp239
a(F0.0122
F0.0583
tp240
a(F0.0122
F0.0733
tp241
a(F0.0132
F0.0683
tp242
a(F0.0102
F0.0733
tp243
a(F0.0132
F0.0583
tp244
a(F0.012200000000000003
F0.0683
tp245
a(F0.011200000000000002
F0.0683
tp246
a(F0.0112
F0.0633
tp247
a(F0.0112
F0.0583
tp248
a(F0.0132
F0.07830000000000001
tp249
a(F0.0112
F0.0683
tp250
a(F0.0132
F0.0633
tp251
a(F0.0122
F0.0633
tp252
a(F0.0122
F0.0683
tp253
a(F0.012200000000000003
F0.0633
tp254
assI5
(dp255
g2
g3
(g4
(I0
tp256
g6
tp257
Rp258
(I1
(L13L
tp259
g13
I00
S'9\xd1\x01\x86"~k@R\\\x80\xcd\x9d+t@\x9a\xf6\xd40Y\xbc|@\xfax\x01\xfc\xb0U\x83@\x86-\xd31\x8fD\x89@i\t\x9dt\xc5\xaf\x8f@\x97LN\x8b\xb4i\x92@\xc5\x94\xceg\x045\x95@\xba\x99\xf8<\x12\xb2\x96@5\n\xb6w\x107\x96@\x19W\xa3L\xcc\xd6\x95@\xe0\xdf\xb8\xf7\xcb{\x93@\x83\xa7\xfb\xeb\xfbd\x91@'
p260
tp261
bsg18
(lp262
g20
(g13
S'3\xbaOBT\x86\x87?'
p263
tp264
Rp265
ag20
(g13
S',\x96qj\x17x\xae?'
p266
tp267
Rp268
asg27
I32
sg28
(F0.010499999999999999
F0.07450000000000001
g20
(g13
S'QH\xb6[9R\xd0@'
p269
tp270
Rp271
tp272
sg33
g20
(g13
S'`tD\xa5\x84\xbb\xed?'
p273
tp274
Rp275
sg37
(lp276
(F0.010499999999999999
F0.07950000000000002
tp277
a(F0.0115
F0.0645
tp278
a(F0.0125
F0.0595
tp279
a(F0.009499999999999998
F0.0695
tp280
a(F0.013500000000000002
F0.0545
tp281
a(F0.010499999999999999
F0.059500000000000004
tp282
a(F0.010499999999999999
F0.0645
tp283
a(F0.014500000000000002
F0.0695
tp284
a(F0.0125
F0.059500000000000004
tp285
a(F0.0115
F0.0545
tp286
a(F0.0125
F0.0695
tp287
a(F0.013500000000000002
F0.0645
tp288
a(F0.0115
F0.07450000000000001
tp289
a(F0.0115
F0.07950000000000002
tp290
a(F0.009499999999999998
F0.07950000000000002
tp291
a(F0.009499999999999998
F0.07450000000000001
tp292
a(F0.0125
F0.0645
tp293
a(F0.013500000000000002
F0.0695
tp294
a(F0.014500000000000002
F0.059500000000000004
tp295
a(F0.0115
F0.0595
tp296
a(F0.013500000000000002
F0.059500000000000004
tp297
a(F0.0115
F0.059500000000000004
tp298
a(F0.0125
F0.07450000000000001
tp299
a(F0.014500000000000002
F0.0645
tp300
a(F0.0105
F0.0595
tp301
a(F0.010499999999999999
F0.0695
tp302
a(F0.010499999999999999
F0.07450000000000001
tp303
a(F0.0125
F0.0545
tp304
a(F0.0105
F0.0545
tp305
a(F0.0115
F0.0695
tp306
a(F0.013500000000000002
F0.0595
tp307
a(F0.0105
F0.0645
tp308
assI6
(dp309
g2
g3
(g4
(I0
tp310
g6
tp311
Rp312
(I1
(L13L
tp313
g13
I00
S'6}\xe4)?\x03n@\x91\xc4\x8d[@\xd9v@\x19\x90\x9avp\x99}@\xbf\xaf\xd5\xab\xef\xb7\x84@9\x87\xb0\x83\x8bX\x8a@\x95>[eu\xd0\x8f@_\xbbx-\xd6+\x93@\x9c\x1b\xe6\xd3\x14\x97\x95@M\xaf\x874\x93<\x96@\xf4\xcb\xc3bb\n\x96@\xf9dv+\x0cG\x95@\x8an\xf4\r\xfc \x93@j\xd6\xdd3\x0b\xdb\x90@'
p314
tp315
bsg18
(lp316
g20
(g13
S'Cz\xbe\x89&s\x86?'
p317
tp318
Rp319
ag20
(g13
S'\xba\xa0\x19M\x98*\xaf?'
p320
tp321
Rp322
asg27
I21
sg28
(F0.012
F0.0709
g20
(g13
S'\x96\xbc?W\x14\x8f\xd0@'
p323
tp324
Rp325
tp326
sg33
g20
(g13
S'p\xd0\x1e\x90\xfe\xdc\xed?'
p327
tp328
Rp329
sg37
(lp330
(F0.011
F0.0659
tp331
a(F0.01
F0.0609
tp332
a(F0.011
F0.0609
tp333
a(F0.009999999999999998
F0.0709
tp334
a(F0.013000000000000001
F0.0709
tp335
a(F0.009999999999999998
F0.0659
tp336
a(F0.012
F0.0559
tp337
a(F0.012
F0.07590000000000001
tp338
a(F0.011
F0.0709
tp339
a(F0.01
F0.0659
tp340
a(F0.013000000000000001
F0.07590000000000001
tp341
a(F0.012
F0.0609
tp342
a(F0.012
F0.0709
tp343
a(F0.012
F0.0659
tp344
a(F0.011
F0.07590000000000001
tp345
a(F0.01
F0.0559
tp346
a(F0.011
F0.0559
tp347
a(F0.013000000000000001
F0.0609
tp348
a(F0.009999999999999998
F0.07590000000000001
tp349
a(F0.013000000000000001
F0.0659
tp350
a(F0.009999999999999998
F0.0609
tp351
assI7
(dp352
g2
g3
(g4
(I0
tp353
g6
tp354
Rp355
(I1
(L13L
tp356
g13
I00
S'\xa3p\x1a\xc7\xb8Dl@h\xa3TW\x0f\x1au@\x98\x1d\xd1\xc5z\x00}@\xf1{\xba0\xae,\x84@*\xa6c\x9f\xd9\xe3\x89@\x1c\xf5\xfe\x02\x17\xa7\x8f@\xa0\xdfs\xad#\xea\x92@D$\xd9\x16x`\x95@kL\xdd\t-\x86\x96@\xa7\x14\x08N\xbe;\x96@*\xd5\xbda\xdek\x95@Y\xe7\xe8\xdd\x94o\x93@\x00\x8ai\xe2m\xde\x90@'
p357
tp358
bsg18
(lp359
g20
(g13
S'3\xae\xf9)\xf4\xe5\x88?'
p360
tp361
Rp362
ag20
(g13
S'B\xdbA\x95\xe0H\xb0?'
p363
tp364
Rp365
asg27
I30
sg28
(F0.0112
F0.0736
g20
(g13
S'\xa3\x94m\xac\x05_\xd0@'
p366
tp367
Rp368
tp369
sg33
g20
(g13
S',\x03\xd0[E\xc6\xed?'
p370
tp371
Rp372
sg37
(lp373
(F0.0112
F0.0736
tp374
a(F0.011200000000000002
F0.0736
tp375
a(F0.012199999999999999
F0.0686
tp376
a(F0.011200000000000002
F0.0686
tp377
a(F0.0132
F0.0586
tp378
a(F0.011200000000000002
F0.05859999999999999
tp379
a(F0.0132
F0.0686
tp380
a(F0.0112
F0.0586
tp381
a(F0.0122
F0.0736
tp382
a(F0.012199999999999999
F0.0736
tp383
a(F0.0122
F0.06359999999999999
tp384
a(F0.0132
F0.0736
tp385
a(F0.0102
F0.0686
tp386
a(F0.011200000000000002
F0.06359999999999999
tp387
a(F0.0112
F0.0786
tp388
a(F0.0102
F0.0736
tp389
a(F0.0132
F0.0636
tp390
a(F0.012199999999999999
F0.06359999999999999
tp391
a(F0.0132
F0.06359999999999999
tp392
a(F0.012199999999999999
F0.0786
tp393
a(F0.0122
F0.0686
tp394
a(F0.0132
F0.05859999999999999
tp395
a(F0.0112
F0.06359999999999999
tp396
a(F0.0112
F0.0636
tp397
a(F0.0112
F0.0686
tp398
a(F0.0122
F0.0636
tp399
a(F0.0122
F0.0586
tp400
a(F0.0102
F0.0786
tp401
a(F0.0102
F0.06359999999999999
tp402
a(F0.0122
F0.05859999999999999
tp403
assI8
(dp404
g2
g3
(g4
(I0
tp405
g6
tp406
Rp407
(I1
(L13L
tp408
g13
I00
S'\x8e\x00\xadj\xa9%o@\xbcS\x8c]l\xf7v@\xf6)\x99\x02\xf0\xb4}@\xca\x19C\x11+\xf9\x83@ \xb8|\x19{Q\x89@\t\x80\xcf\xfee\xbf\x8e@7K\x9a\x9bpv\x92@\x029aH\xf4j\x94@\x1a\xb2GP\xa6\x0c\x96@\xa4:\x90\xae\xe8`\x96@o\xb4\xd7\x03y\xc2\x95@\xd7\x98\x1e\\\xce\xef\x93@\n\x81\xf7\x88\x96B\x92@'
p409
tp410
bsg18
(lp411
g20
(g13
S'\xf2\x8b\xa0Y|6\x88?'
p412
tp413
Rp414
ag20
(g13
S'\x9d\x86 \xc1W\xe7\xae?'
p415
tp416
Rp417
asg27
I30
sg28
(F0.0118
F0.0654
g20
(g13
S'\x88*zC\x07\x95\xd1@'
p418
tp419
Rp420
tp421
sg33
g20
(g13
S'\x00\xedg%\xa7\xb2\xed?'
p422
tp423
Rp424
sg37
(lp425
(F0.011800000000000001
F0.0704
tp426
a(F0.0128
F0.055400000000000005
tp427
a(F0.0108
F0.0604
tp428
a(F0.0118
F0.0654
tp429
a(F0.0118
F0.0704
tp430
a(F0.011800000000000001
F0.055400000000000005
tp431
a(F0.0108
F0.0654
tp432
a(F0.0128
F0.0554
tp433
a(F0.011800000000000001
F0.0604
tp434
a(F0.0118
F0.0604
tp435
a(F0.012799999999999999
F0.0604
tp436
a(F0.012799999999999999
F0.0654
tp437
a(F0.0128
F0.0654
tp438
a(F0.0108
F0.0704
tp439
a(F0.0118
F0.0554
tp440
a(F0.0108
F0.0554
tp441
a(F0.0098
F0.07540000000000001
tp442
a(F0.0138
F0.0654
tp443
a(F0.0138
F0.055400000000000005
tp444
a(F0.012800000000000002
F0.0704
tp445
a(F0.012799999999999999
F0.0704
tp446
a(F0.012800000000000002
F0.0654
tp447
a(F0.011800000000000001
F0.07540000000000001
tp448
a(F0.012800000000000002
F0.07540000000000001
tp449
a(F0.0098
F0.0704
tp450
a(F0.0108
F0.07540000000000001
tp451
a(F0.011800000000000001
F0.0654
tp452
a(F0.0128
F0.0604
tp453
a(F0.0138
F0.0604
tp454
a(F0.0098
F0.0654
tp455
assI9
(dp456
g2
g3
(g4
(I0
tp457
g6
tp458
Rp459
(I1
(L13L
tp460
g13
I00
S'\xf6\xd0\xf5\xd6R\xa0f@\xaeka\xdbz\rr@\x1c\x85\xee\xaf*\xaby@\xc8R\xaaA\xbeg\x82@\xe5\xb4\x1e\xbf\xbe\xf4\x87@y\n\xd6\x0ba\xed\x8e@V\x95\xe8\xa0\xdc\n\x93@\xa1S\x06\x0c\xb1e\x95@$\xa5m%\x0c\x1e\x97@6\x91}{\x8f\xc0\x96@\xf62\xc2~Y\xb4\x95@\xecf1\x9e\xb7\x84\x93@^\x84\x81\xc2\xba\xf3\x90@'
p461
tp462
bsg18
(lp463
g20
(g13
S'\x8e\xe2\xd9\xca\xbf\x8f\x86?'
p464
tp465
Rp466
ag20
(g13
S'\xb6\xbe\xcbW\t\xf9\xae?'
p467
tp468
Rp469
asg27
I33
sg28
(F0.008999999999999998
F0.08050000000000002
g20
(g13
S'\xc7\xbe\x91\xac8{\xcf@'
p470
tp471
Rp472
tp473
sg33
g20
(g13
S'fVN\x11E\xb3\xed?'
p474
tp475
Rp476
sg37
(lp477
(F0.009999999999999998
F0.07550000000000001
tp478
a(F0.013000000000000001
F0.0655
tp479
a(F0.011
F0.08050000000000002
tp480
a(F0.011
F0.0655
tp481
a(F0.01
F0.0655
tp482
a(F0.012
F0.0605
tp483
a(F0.013000000000000001
F0.0605
tp484
a(F0.008999999999999998
F0.08550000000000002
tp485
a(F0.011
F0.060500000000000005
tp486
a(F0.007999999999999997
F0.07550000000000001
tp487
a(F0.012
F0.0655
tp488
a(F0.011
F0.07550000000000001
tp489
a(F0.01
F0.0555
tp490
a(F0.009999999999999998
F0.08050000000000002
tp491
a(F0.011
F0.07050000000000001
tp492
a(F0.012
F0.07050000000000001
tp493
a(F0.008999999999999998
F0.07550000000000001
tp494
a(F0.007999999999999997
F0.08550000000000002
tp495
a(F0.009999999999999998
F0.0655
tp496
a(F0.011
F0.0555
tp497
a(F0.013000000000000001
F0.07050000000000001
tp498
a(F0.008999999999999998
F0.08050000000000002
tp499
a(F0.012
F0.060500000000000005
tp500
a(F0.012
F0.0555
tp501
a(F0.009999999999999998
F0.07050000000000001
tp502
a(F0.008999999999999998
F0.07050000000000001
tp503
a(F0.009999999999999998
F0.08550000000000002
tp504
a(F0.013000000000000001
F0.060500000000000005
tp505
a(F0.012
F0.07550000000000001
tp506
a(F0.011
F0.0605
tp507
a(F0.013000000000000001
F0.0555
tp508
a(F0.01
F0.0605
tp509
a(F0.007999999999999997
F0.08050000000000002
tp510
ass.