(dp0
I0
(dp1
S'best_curve'
p2
cnumpy.core.multiarray
_reconstruct
p3
(cnumpy
ndarray
p4
(I0
tp5
S'b'
p6
tp7
Rp8
(I1
(L13L
tp9
cnumpy
dtype
p10
(S'f8'
p11
I0
I1
tp12
Rp13
(I3
S'<'
p14
NNNI-1
I-1
I0
tp15
bI00
S'\x10e\xc7\x9d\xfeLa@\x12:6\xdfC_m@n\x9d\r#c-x@\xd40^\xf2\xb9%\x82@\xe5\x9f\xa3z\xa8\x93\x89@\xa2\xdd\xfb\xf37\xf8\x90@\x0f\r\xf5\r\xe4\xc2\x95@\x06\x8d\xebj\xed\xa0\x99@P\xf0\xafh\x1f+\x9c@\x9d\x8a3"\xa1r\x9c@\xc7\x95ir\xc6\x02\x9b@\x8at\xa9+#J\x98@F+\xb2\xd1\xa3\xf9\x94@'
p16
tp17
bsS'pq0'
p18
(lp19
cnumpy.core.multiarray
scalar
p20
(g13
S'h\xe5\x04\x1c\xc0\xb1\x81?'
p21
tp22
Rp23
ag20
(g13
S'\xd0`;\xfa\xe2\x12\xb4?'
p24
tp25
Rp26
asS'steps'
p27
I34
sS'params'
p28
(F0.0056
F0.10340000000000002
g20
(g13
S'Yg\x8e\x91d\xff\xd1@'
p29
tp30
Rp31
tp32
sS'fitness'
p33
g20
(g13
S'N\x0b\x97j\xd21\xee?'
p34
tp35
Rp36
sS'path'
p37
(lp38
(F0.0076
F0.09340000000000001
tp39
a(F0.0086
F0.09340000000000001
tp40
a(F0.0056
F0.09840000000000002
tp41
a(F0.0056
F0.10840000000000002
tp42
a(F0.0096
F0.0784
tp43
a(F0.0066
F0.09840000000000002
tp44
a(F0.009600000000000001
F0.0884
tp45
a(F0.0076
F0.0834
tp46
a(F0.0046
F0.09340000000000001
tp47
a(F0.0086
F0.0884
tp48
a(F0.0066
F0.10840000000000002
tp49
a(F0.0076
F0.0784
tp50
a(F0.0056
F0.10340000000000002
tp51
a(F0.0056
F0.09340000000000001
tp52
a(F0.0056
F0.0884
tp53
a(F0.0066
F0.0784
tp54
a(F0.0046
F0.10340000000000002
tp55
a(F0.0096
F0.0734
tp56
a(F0.009600000000000001
F0.0834
tp57
a(F0.009600000000000001
F0.0784
tp58
a(F0.0066
F0.0834
tp59
a(F0.0046
F0.09840000000000002
tp60
a(F0.0076
F0.09840000000000002
tp61
a(F0.0086
F0.0834
tp62
a(F0.0066
F0.09340000000000001
tp63
a(F0.0056
F0.0834
tp64
a(F0.0046
F0.10840000000000002
tp65
a(F0.0076
F0.0884
tp66
a(F0.0086
F0.0734
tp67
a(F0.0086
F0.0784
tp68
a(F0.0076
F0.0734
tp69
a(F0.0066
F0.10340000000000002
tp70
a(F0.0096
F0.0834
tp71
a(F0.0066
F0.0884
tp72
assI1
(dp73
g2
g3
(g4
(I0
tp74
g6
tp75
Rp76
(I1
(L13L
tp77
g13
I00
S'\xbd\xf6\x1d_Efg@J\x0f\x0fd0\xaaq@\xd8\xea\xa1\xaf\xc9P{@h\xe4\xc6\xe2\xcb\xc7\x83@\x12g\xae\xa7 \x1f\x8b@X\xc3\x82\xa3\xd1[\x91@\xfbS^\x85\xb3g\x95@\x14.6q\x12\x03\x99@|\t\x8d$\x8f$\x9b@VKk2\r*\x9c@\x98\x8b \x08\xf7\xd6\x9a@O\x15\xd2\xe7]\x13\x99@\xce\x98\x1b\x7f\x90r\x95@'
p78
tp79
bsg18
(lp80
g20
(g13
S'R\x99\x02\x0b\xb0\xd7\x82?'
p81
tp82
Rp83
ag20
(g13
S'@\x96\xaa_\xac\xc2\xb3?'
p84
tp85
Rp86
asg27
I52
sg28
(F0.007199999999999999
F0.09220000000000002
g20
(g13
S'&\xbc|\xf0\xa2\xf1\xd2@'
p87
tp88
Rp89
tp90
sg33
g20
(g13
S'\x13\xa6\x98\xc7#.\xee?'
p91
tp92
Rp93
sg37
(lp94
(F0.007199999999999999
F0.09220000000000002
tp95
a(F0.007200000000000001
F0.0922
tp96
a(F0.008199999999999999
F0.09720000000000002
tp97
a(F0.005200000000000001
F0.0872
tp98
a(F0.0102
F0.0722
tp99
a(F0.0102
F0.0822
tp100
a(F0.007200000000000001
F0.10220000000000001
tp101
a(F0.0082
F0.0822
tp102
a(F0.008199999999999999
F0.08720000000000001
tp103
a(F0.005200000000000001
F0.09720000000000001
tp104
a(F0.008199999999999999
F0.09220000000000002
tp105
a(F0.007199999999999999
F0.08220000000000001
tp106
a(F0.0102
F0.0772
tp107
a(F0.008199999999999999
F0.0722
tp108
a(F0.007199999999999999
F0.0772
tp109
a(F0.007199999999999999
F0.08720000000000001
tp110
a(F0.0092
F0.0822
tp111
a(F0.0082
F0.0922
tp112
a(F0.006200000000000001
F0.09720000000000001
tp113
a(F0.005199999999999999
F0.09720000000000002
tp114
a(F0.008199999999999999
F0.0772
tp115
a(F0.0092
F0.08220000000000001
tp116
a(F0.007199999999999999
F0.09720000000000002
tp117
a(F0.0092
F0.07719999999999999
tp118
a(F0.006199999999999999
F0.09720000000000002
tp119
a(F0.007200000000000001
F0.0822
tp120
a(F0.005199999999999999
F0.09220000000000002
tp121
a(F0.006199999999999999
F0.10220000000000003
tp122
a(F0.008199999999999999
F0.08220000000000001
tp123
a(F0.005200000000000001
F0.10220000000000001
tp124
a(F0.0102
F0.08220000000000001
tp125
a(F0.0082
F0.0872
tp126
a(F0.006199999999999999
F0.08720000000000001
tp127
a(F0.0082
F0.07719999999999999
tp128
a(F0.0092
F0.08720000000000001
tp129
a(F0.006200000000000001
F0.0922
tp130
a(F0.006199999999999999
F0.09220000000000002
tp131
a(F0.005200000000000001
F0.0922
tp132
a(F0.006200000000000001
F0.0872
tp133
a(F0.006199999999999999
F0.08220000000000001
tp134
a(F0.0092
F0.0772
tp135
a(F0.006200000000000001
F0.10220000000000001
tp136
a(F0.006200000000000001
F0.0822
tp137
a(F0.007200000000000001
F0.0872
tp138
a(F0.007200000000000001
F0.09720000000000001
tp139
a(F0.007200000000000001
F0.07719999999999999
tp140
a(F0.0092
F0.0872
tp141
a(F0.007199999999999999
F0.10220000000000003
tp142
a(F0.0082
F0.0772
tp143
a(F0.0082
F0.0722
tp144
a(F0.005199999999999999
F0.10220000000000003
tp145
a(F0.0092
F0.0722
tp146
assI2
(dp147
g2
g3
(g4
(I0
tp148
g6
tp149
Rp150
(I1
(L13L
tp151
g13
I00
S'\xc6\xc3.\x88/\xfcd@\xa0\xb6~0\x8a\x07r@}\xc6z\xa2Nny@(L\xdf\xef{\x08\x83@9}\xd8\xde\xa79\x8a@\x17!\x1eq\x98\x06\x91@!\xc28\xdd\x9a\x9d\x94@j\xf5\xc7\xb2ex\x98@\xe8P\xe4]2\xd0\x9a@\x15\xe8:\xc8\xb8/\x9c@\xa2\x95g\xc9\x1d\xe0\x9b@\xd1\xcf\x93l\x05\x9c\x99@\xce\xefR\xeb\x1f@\x96@'
p152
tp153
bsg18
(lp154
g20
(g13
S'~s\xe8\xd1$\xbf\x81?'
p155
tp156
Rp157
ag20
(g13
S'\xa4J:\x98\xc1\xb4\xb3?'
p158
tp159
Rp160
asg27
I38
sg28
(F0.0067
F0.09200000000000001
g20
(g13
S'\xf4*\xe2r\x14>\xd3@'
p161
tp162
Rp163
tp164
sg33
g20
(g13
S'\x063\x15\x064L\xee?'
p165
tp166
Rp167
sg37
(lp168
(F0.007699999999999999
F0.09700000000000002
tp169
a(F0.0067
F0.077
tp170
a(F0.007699999999999999
F0.09200000000000001
tp171
a(F0.0057
F0.08700000000000001
tp172
a(F0.005699999999999999
F0.09700000000000002
tp173
a(F0.0067
F0.09700000000000002
tp174
a(F0.0077
F0.077
tp175
a(F0.006699999999999999
F0.08700000000000001
tp176
a(F0.0097
F0.072
tp177
a(F0.0067
F0.08700000000000001
tp178
a(F0.0097
F0.082
tp179
a(F0.0077
F0.08700000000000001
tp180
a(F0.0097
F0.077
tp181
a(F0.005699999999999999
F0.08700000000000001
tp182
a(F0.0087
F0.09200000000000001
tp183
a(F0.0087
F0.08700000000000001
tp184
a(F0.0087
F0.077
tp185
a(F0.0057
F0.10200000000000002
tp186
a(F0.0087
F0.082
tp187
a(F0.005699999999999999
F0.09200000000000001
tp188
a(F0.0077
F0.082
tp189
a(F0.006699999999999999
F0.09200000000000001
tp190
a(F0.0067
F0.09200000000000001
tp191
a(F0.0057
F0.09200000000000001
tp192
a(F0.006699999999999999
F0.082
tp193
a(F0.007699999999999999
F0.077
tp194
a(F0.0077
F0.09700000000000002
tp195
a(F0.0067
F0.10200000000000002
tp196
a(F0.007699999999999999
F0.08700000000000001
tp197
a(F0.0057
F0.09700000000000002
tp198
a(F0.007699999999999999
F0.082
tp199
a(F0.006699999999999999
F0.09700000000000002
tp200
a(F0.0087
F0.072
tp201
a(F0.0077
F0.09200000000000001
tp202
a(F0.0077
F0.10200000000000002
tp203
a(F0.0077
F0.072
tp204
a(F0.0067
F0.082
tp205
a(F0.0097
F0.08700000000000001
tp206
assI3
(dp207
g2
g3
(g4
(I0
tp208
g6
tp209
Rp210
(I1
(L13L
tp211
g13
I00
S'xh\xb2\xc8\x02Pf@\xb6\xa3G\xa2\x99\xbdp@\xba)Alb#{@0,\x9d\x7f\xdd\x8c\x82@\xbc\xcf\x1b\x13\xab$\x8a@\xc9\xfbs\xf3>S\x91@\xba\xcb\x7fX\xda\xba\x94@\\[\x18\x82\xbe\x11\x98@\xcaR\x9ce\xd3\xcb\x9a@\x95\x02\xdfz\x03\xe4\x9b@\x16\xac\x95\xa4U\xa4\x9b@\x18d>IV\xef\x99@g?W\xcf\x91\xa7\x96@'
p212
tp213
bsg18
(lp214
g20
(g13
S'\xd3\x89\xf8r\x9e\xe2\x7f?'
p215
tp216
Rp217
ag20
(g13
S'\xad\xd3\x1a\xa1\xb3S\xb3?'
p218
tp219
Rp220
asg27
I37
sg28
(F0.0068
F0.09050000000000001
g20
(g13
S'\xa7\x85!\x05\xedn\xd3@'
p221
tp222
Rp223
tp224
sg33
g20
(g13
S'\xe5\x18\xbe\x19\xb7?\xee?'
p225
tp226
Rp227
sg37
(lp228
(F0.0078
F0.10050000000000002
tp229
a(F0.0058
F0.09550000000000002
tp230
a(F0.008799999999999999
F0.0855
tp231
a(F0.0058
F0.0855
tp232
a(F0.008799999999999999
F0.0755
tp233
a(F0.0058
F0.10550000000000002
tp234
a(F0.0048
F0.10050000000000002
tp235
a(F0.0068
F0.0705
tp236
a(F0.0088
F0.0705
tp237
a(F0.0078000000000000005
F0.0755
tp238
a(F0.0098
F0.0855
tp239
a(F0.0068
F0.10550000000000002
tp240
a(F0.0088
F0.0855
tp241
a(F0.0048
F0.10550000000000002
tp242
a(F0.0058
F0.09050000000000001
tp243
a(F0.0068
F0.10050000000000002
tp244
a(F0.0048
F0.09550000000000002
tp245
a(F0.0078
F0.09050000000000001
tp246
a(F0.0068
F0.0755
tp247
a(F0.0058
F0.10050000000000002
tp248
a(F0.0078
F0.09550000000000002
tp249
a(F0.0078000000000000005
F0.0805
tp250
a(F0.0078
F0.0705
tp251
a(F0.0078
F0.0855
tp252
a(F0.0088
F0.0805
tp253
a(F0.0068
F0.0805
tp254
a(F0.0088
F0.0755
tp255
a(F0.0078
F0.0755
tp256
a(F0.0098
F0.0805
tp257
a(F0.008799999999999999
F0.09050000000000001
tp258
a(F0.0068
F0.09550000000000002
tp259
a(F0.0078000000000000005
F0.0855
tp260
a(F0.0098
F0.0755
tp261
a(F0.0068
F0.0855
tp262
a(F0.008799999999999999
F0.0805
tp263
a(F0.0068
F0.09050000000000001
tp264
a(F0.0078
F0.0805
tp265
assI4
(dp266
g2
g3
(g4
(I0
tp267
g6
tp268
Rp269
(I1
(L13L
tp270
g13
I00
S'-\xf8\x08\xe7\xd8\xe0e@\x10\xb4f\x83\x93\xddp@ \xdd2/\x01\xf1y@\x89\x02\xb7\xebF\x12\x83@\x80\xbe8\xd9\xc87\x8a@\xa5\x91@\xb3qm\x91@?\xfe\xe8\x10\xe8k\x95@^l\t9"M\x99@\x9a\xf9\xc5\x17\n\xd7\x9a@\xd7|)\x10\x03\x1e\x9c@9\x88\xad~\xbfB\x9b@\xd1\x01\r\xafH5\x99@\xf8\xfb4a\xc2\x97\x95@'
p271
tp272
bsg18
(lp273
g20
(g13
S'ou\x8e\x93\xf1\x98\x81?'
p274
tp275
Rp276
ag20
(g13
S'\x95Z[\xfcBv\xb3?'
p277
tp278
Rp279
asg27
I33
sg28
(F0.0066
F0.09600000000000002
g20
(g13
S'\r\xa8\xf3qk\xc8\xd2@'
p280
tp281
Rp282
tp283
sg33
g20
(g13
S'\xc4T\x15\xfb\xf0b\xee?'
p284
tp285
Rp286
sg37
(lp287
(F0.0076
F0.09100000000000001
tp288
a(F0.0056
F0.09600000000000002
tp289
a(F0.0066
F0.10100000000000002
tp290
a(F0.009600000000000001
F0.071
tp291
a(F0.009600000000000001
F0.081
tp292
a(F0.0066
F0.09600000000000002
tp293
a(F0.0076
F0.081
tp294
a(F0.0086
F0.081
tp295
a(F0.0086
F0.09100000000000001
tp296
a(F0.0056
F0.10100000000000002
tp297
a(F0.0066
F0.08600000000000001
tp298
a(F0.0066
F0.10600000000000002
tp299
a(F0.0076
F0.08600000000000001
tp300
a(F0.0056
F0.09100000000000001
tp301
a(F0.0096
F0.076
tp302
a(F0.0096
F0.071
tp303
a(F0.0066
F0.081
tp304
a(F0.0076
F0.09600000000000002
tp305
a(F0.0046
F0.10100000000000002
tp306
a(F0.0096
F0.081
tp307
a(F0.0076
F0.076
tp308
a(F0.0076
F0.10100000000000002
tp309
a(F0.0066
F0.076
tp310
a(F0.0086
F0.076
tp311
a(F0.0066
F0.09100000000000001
tp312
a(F0.0046
F0.09600000000000002
tp313
a(F0.0086
F0.071
tp314
a(F0.0056
F0.10600000000000002
tp315
a(F0.0076
F0.071
tp316
a(F0.0056
F0.08600000000000001
tp317
a(F0.0046
F0.10600000000000002
tp318
a(F0.009600000000000001
F0.076
tp319
a(F0.0086
F0.08600000000000001
tp320
assI5
(dp321
g2
g3
(g4
(I0
tp322
g6
tp323
Rp324
(I1
(L13L
tp325
g13
I00
S'\x12\x9b\xf6l\xed\x16b@\xfa\xc5\x03\x92\xc0\x88o@\x038k\xb2\x91\x11y@*\xd983I9\x82@\x87\xfd\x96\x11=\xdb\x89@\xff\xfe\xf9Mq \x91@\xec\x14\xa0\x96H\x12\x95@gBy\x0f\x93\xd3\x98@\xd1\xd3Uia\x9e\x9b@=\xaa\x1d\xf5[\x96\x9c@5\x9d\x01V\xc0\xbd\x9b@\xbd\\\xc3\xb5v\xee\x98@3\x80\x88\xf6\xb0(\x95@'
p326
tp327
bsg18
(lp328
g20
(g13
S'\xca:\xdbu-X\x82?'
p329
tp330
Rp331
ag20
(g13
S'W\x08\x0bD\xe8m\xb3?'
p332
tp333
Rp334
asg27
I42
sg28
(F0.006
F0.10090000000000002
g20
(g13
S'\xdeM\xcf\x0cF<\xd2@'
p335
tp336
Rp337
tp338
sg33
g20
(g13
S'\xe0\xb4C\x06\x8c;\xee?'
p339
tp340
Rp341
sg37
(lp342
(F0.007
F0.0759
tp343
a(F0.004
F0.11090000000000003
tp344
a(F0.01
F0.0709
tp345
a(F0.006
F0.0859
tp346
a(F0.009000000000000001
F0.09090000000000001
tp347
a(F0.007
F0.09590000000000001
tp348
a(F0.005
F0.09090000000000001
tp349
a(F0.005
F0.11090000000000003
tp350
a(F0.004
F0.10590000000000002
tp351
a(F0.006
F0.09590000000000001
tp352
a(F0.009
F0.0809
tp353
a(F0.009
F0.0709
tp354
a(F0.009000000000000001
F0.09590000000000001
tp355
a(F0.007
F0.0859
tp356
a(F0.009000000000000001
F0.0759
tp357
a(F0.006
F0.09090000000000001
tp358
a(F0.007
F0.10590000000000002
tp359
a(F0.006
F0.10090000000000002
tp360
a(F0.009000000000000001
F0.0859
tp361
a(F0.009000000000000001
F0.0809
tp362
a(F0.009
F0.0859
tp363
a(F0.009999999999999998
F0.0759
tp364
a(F0.01
F0.0809
tp365
a(F0.006
F0.11090000000000003
tp366
a(F0.008
F0.0859
tp367
a(F0.005
F0.10090000000000002
tp368
a(F0.005
F0.09590000000000001
tp369
a(F0.007
F0.0809
tp370
a(F0.008
F0.09590000000000001
tp371
a(F0.008
F0.0809
tp372
a(F0.009
F0.0759
tp373
a(F0.006
F0.10590000000000002
tp374
a(F0.008
F0.0759
tp375
a(F0.007
F0.09090000000000001
tp376
a(F0.01
F0.0759
tp377
a(F0.008
F0.09090000000000001
tp378
a(F0.009999999999999998
F0.0809
tp379
a(F0.004
F0.10090000000000002
tp380
a(F0.009999999999999998
F0.0859
tp381
a(F0.008
F0.0709
tp382
a(F0.005
F0.10590000000000002
tp383
a(F0.007
F0.10090000000000002
tp384
assI6
(dp385
g2
g3
(g4
(I0
tp386
g6
tp387
Rp388
(I1
(L13L
tp389
g13
I00
S'\xe7pf\x1a\xc7\xbee@\xc5\xc5+\xe8i\x07q@\xf3\x87\xee\xea\xc7fz@\xc8`!\xfad\x05\x83@\x88\xabR\xf6\x1e \x8a@\xef\x8a\x1c\xd0\xd4#\x91@]\x19\xb3nac\x95@+\xfe\xdb<\xb59\x99@w\x97\xe1\xb0Ng\x9b@\xa4\xda\xfaiv-\x9c@\xff.tNn\x17\x9b@\x97}\xcb\xfee\xd7\x98@\xce\x9a\xbb{\xe1\xad\x95@'
p390
tp391
bsg18
(lp392
g20
(g13
S'aY\x9b\x8a\xb0\xc7\x80?'
p393
tp394
Rp395
ag20
(g13
S'E\x7f~wk\x8e\xb3?'
p396
tp397
Rp398
asg27
I50
sg28
(F0.006200000000000001
F0.09640000000000001
g20
(g13
S'`\xc6}BE\xc0\xd2@'
p399
tp400
Rp401
tp402
sg33
g20
(g13
S'\x98\xcf\x0eMGB\xee?'
p403
tp404
Rp405
sg37
(lp406
(F0.0062
F0.09140000000000001
tp407
a(F0.0072
F0.0714
tp408
a(F0.0042
F0.10640000000000002
tp409
a(F0.0042
F0.10140000000000002
tp410
a(F0.007200000000000001
F0.0814
tp411
a(F0.008199999999999999
F0.0764
tp412
a(F0.0072
F0.0764
tp413
a(F0.0092
F0.0764
tp414
a(F0.0082
F0.0814
tp415
a(F0.0052
F0.10140000000000002
tp416
a(F0.0082
F0.0864
tp417
a(F0.0052
F0.10640000000000002
tp418
a(F0.0062
F0.0814
tp419
a(F0.0072
F0.0814
tp420
a(F0.008199999999999999
F0.0814
tp421
a(F0.007200000000000001
F0.09640000000000001
tp422
a(F0.0072
F0.10140000000000002
tp423
a(F0.0072
F0.0864
tp424
a(F0.0052
F0.09140000000000001
tp425
a(F0.0092
F0.0864
tp426
a(F0.006200000000000001
F0.0864
tp427
a(F0.0062
F0.10640000000000002
tp428
a(F0.0052
F0.09640000000000001
tp429
a(F0.006200000000000001
F0.09640000000000001
tp430
a(F0.0062
F0.10140000000000002
tp431
a(F0.008199999999999999
F0.0864
tp432
a(F0.007200000000000001
F0.0764
tp433
a(F0.0082
F0.0764
tp434
a(F0.0062
F0.0764
tp435
a(F0.0072
F0.09640000000000001
tp436
a(F0.0062
F0.0864
tp437
a(F0.005200000000000001
F0.09640000000000001
tp438
a(F0.008199999999999999
F0.09140000000000001
tp439
a(F0.0042
F0.09640000000000001
tp440
a(F0.0092
F0.0814
tp441
a(F0.007200000000000001
F0.09140000000000001
tp442
a(F0.006200000000000001
F0.10140000000000002
tp443
a(F0.0072
F0.09140000000000001
tp444
a(F0.0092
F0.0714
tp445
a(F0.005200000000000001
F0.09140000000000001
tp446
a(F0.006200000000000001
F0.09140000000000001
tp447
a(F0.0082
F0.09640000000000001
tp448
a(F0.0082
F0.0714
tp449
a(F0.005200000000000001
F0.10140000000000002
tp450
a(F0.007200000000000001
F0.10140000000000002
tp451
a(F0.0062
F0.09640000000000001
tp452
a(F0.007200000000000001
F0.0864
tp453
a(F0.0082
F0.09140000000000001
tp454
a(F0.008199999999999999
F0.09640000000000001
tp455
a(F0.006200000000000001
F0.0814
tp456
assI7
(dp457
g2
g3
(g4
(I0
tp458
g6
tp459
Rp460
(I1
(L13L
tp461
g13
I00
S'\x9d,`\xbf=\x05e@t\xcb\xab%\xe1\x88p@\x91\x00\x1c;\xbbXz@\x07^\xb2\xcbhO\x83@\x8f|}p\xd4,\x8b@X\xb7/\xc9Gb\x91@5\x96\rNf\xdf\x95@\x13\x9a1PeS\x99@\xa9\x82\x14 \xfaT\x9b@\x8d\x9cZd:\x1f\x9c@v\xd2j\x02b\xe6\x9a@\xaeS\x13\xf1\xf4\xc1\x98@P\xaa\x89\xaa\xff\x05\x95@'
p462
tp463
bsg18
(lp464
g20
(g13
S'\x1eo\xdb0\xc7q\x81?'
p465
tp466
Rp467
ag20
(g13
S'S\x028\xcb\x9a\xac\xb3?'
p468
tp469
Rp470
asg27
I34
sg28
(F0.0065
F0.09690000000000001
g20
(g13
S'\xd6\xd8\xf6BW~\xd2@'
p471
tp472
Rp473
tp474
sg33
g20
(g13
S'\x08\x10gp\xfbA\xee?'
p475
tp476
Rp477
sg37
(lp478
(F0.009500000000000001
F0.0769
tp479
a(F0.007500000000000001
F0.0869
tp480
a(F0.0075
F0.0719
tp481
a(F0.0095
F0.0769
tp482
a(F0.006500000000000001
F0.0869
tp483
a(F0.0075
F0.10190000000000002
tp484
a(F0.007500000000000001
F0.0819
tp485
a(F0.0085
F0.0819
tp486
a(F0.0085
F0.09190000000000001
tp487
a(F0.0055
F0.09690000000000001
tp488
a(F0.0055
F0.09190000000000001
tp489
a(F0.0055
F0.0869
tp490
a(F0.007500000000000001
F0.0769
tp491
a(F0.006500000000000001
F0.0769
tp492
a(F0.0075
F0.0819
tp493
a(F0.006500000000000001
F0.0819
tp494
a(F0.0065
F0.10190000000000002
tp495
a(F0.0065
F0.09190000000000001
tp496
a(F0.0065
F0.0819
tp497
a(F0.0075
F0.0769
tp498
a(F0.0095
F0.0819
tp499
a(F0.0085
F0.0719
tp500
a(F0.0075
F0.09190000000000001
tp501
a(F0.009500000000000001
F0.0819
tp502
a(F0.0055
F0.10190000000000002
tp503
a(F0.0085
F0.0769
tp504
a(F0.0085
F0.0869
tp505
a(F0.0075
F0.0869
tp506
a(F0.0075
F0.09690000000000001
tp507
a(F0.0095
F0.0719
tp508
a(F0.009500000000000001
F0.0869
tp509
a(F0.0065
F0.0769
tp510
a(F0.0065
F0.09690000000000001
tp511
a(F0.0065
F0.0869
tp512
assI8
(dp513
g2
g3
(g4
(I0
tp514
g6
tp515
Rp516
(I1
(L13L
tp517
g13
I00
S'\xb91G\xf7\xbc}a@\x0c\xdf\t\x11\xdd\xc3n@\xa2Z\x87\xa6v\x84w@\xdf\x07Vr\xdd\x9b\x82@N\xf98\xc0\xaa\xc3\x89@Q\xf7es\xf7R\x91@\x88\x82 \xbf\x1a\x89\x95@9\xfc=\x1c\x9f\x8b\x99@\x0b\xba\xf8\x00\x7f\xfb\x9b@\r\xcc\xab\xcalf\x9c@-\xb5\x9b8OV\x9b@>{\xd2\x02\x0f[\x98@i+%\xf1N\xbe\x94@'
p518
tp519
bsg18
(lp520
g20
(g13
S'tZ\x01p\xa1=\x82?'
p521
tp522
Rp523
ag20
(g13
S'\xf0\xfc\xd6v\xa8\xe7\xb3?'
p524
tp525
Rp526
asg27
I37
sg28
(F0.005900000000000001
F0.10280000000000002
g20
(g13
S'N\xd3~\xa6\x00\x01\xd2@'
p527
tp528
Rp529
tp530
sg33
g20
(g13
S'\xb4\x85\xbc#2A\xee?'
p531
tp532
Rp533
sg37
(lp534
(F0.0079
F0.0728
tp535
a(F0.004900000000000001
F0.10780000000000002
tp536
a(F0.005900000000000001
F0.09280000000000001
tp537
a(F0.005900000000000001
F0.10780000000000002
tp538
a(F0.008900000000000002
F0.0878
tp539
a(F0.004900000000000001
F0.10280000000000002
tp540
a(F0.006900000000000001
F0.10280000000000002
tp541
a(F0.005900000000000001
F0.0828
tp542
a(F0.006900000000000001
F0.09280000000000001
tp543
a(F0.005900000000000001
F0.09780000000000001
tp544
a(F0.0079
F0.09280000000000001
tp545
a(F0.0099
F0.0778
tp546
a(F0.0089
F0.0778
tp547
a(F0.009899999999999999
F0.0828
tp548
a(F0.0079
F0.09780000000000001
tp549
a(F0.005900000000000001
F0.0878
tp550
a(F0.0099
F0.0828
tp551
a(F0.0079
F0.0828
tp552
a(F0.004900000000000001
F0.09780000000000001
tp553
a(F0.0099
F0.0728
tp554
a(F0.0079
F0.0878
tp555
a(F0.006900000000000001
F0.0878
tp556
a(F0.0079
F0.0778
tp557
a(F0.006900000000000001
F0.0778
tp558
a(F0.0089
F0.0728
tp559
a(F0.004900000000000001
F0.09280000000000001
tp560
a(F0.009899999999999999
F0.0878
tp561
a(F0.0089
F0.0878
tp562
a(F0.009899999999999999
F0.0778
tp563
a(F0.006900000000000001
F0.10780000000000002
tp564
a(F0.008900000000000002
F0.0828
tp565
a(F0.006900000000000001
F0.0828
tp566
a(F0.006900000000000001
F0.09780000000000001
tp567
a(F0.005900000000000001
F0.10280000000000002
tp568
a(F0.008900000000000002
F0.0778
tp569
a(F0.008900000000000002
F0.09280000000000001
tp570
a(F0.0089
F0.0828
tp571
assI9
(dp572
g2
g3
(g4
(I0
tp573
g6
tp574
Rp575
(I1
(L13L
tp576
g13
I00
S"=@~\xb3f\xc6d@;\xcf\x02\xef\x82!q@\x90\xd8\xd5c5\x94{@\xe3\xe2\xf0d\xf8\xb5\x82@\x8c\x80#?=.\x8a@\xb6\x8f\xba\xe0n\xc1\x90@m2\xca\xf0n\x15\x95@\xa7\x18\xdf\x16@\xb0\x98@\x97\xcf\x9dA\xacT\x9b@\x91\x04/v1G\x9c@\x98\xb7\x92\xb4\xcf\x87\x9b@+X'%T\x10\x99@h\xf3\xe0kb\xee\x95@"
p577
tp578
bsg18
(lp579
g20
(g13
S'\xb2\xdf\xd00\xff\x1b\x81?'
p580
tp581
Rp582
ag20
(g13
S'\xd5`\xbe\x15}3\xb3?'
p583
tp584
Rp585
asg27
I47
sg28
(F0.0063999999999999994
F0.09500000000000001
g20
(g13
S'\x02/\xce\x8d\xa8\xea\xd2@'
p586
tp587
Rp588
tp589
sg33
g20
(g13
S'\xe5)L\xbe4*\xee?'
p590
tp591
Rp592
sg37
(lp593
(F0.0063999999999999994
F0.09000000000000001
tp594
a(F0.009400000000000002
F0.085
tp595
a(F0.0104
F0.08
tp596
a(F0.0104
F0.085
tp597
a(F0.0073999999999999995
F0.085
tp598
a(F0.005399999999999999
F0.10500000000000002
tp599
a(F0.008400000000000001
F0.085
tp600
a(F0.0084
F0.08
tp601
a(F0.0063999999999999994
F0.08
tp602
a(F0.0073999999999999995
F0.09000000000000001
tp603
a(F0.007400000000000001
F0.08
tp604
a(F0.0094
F0.08
tp605
a(F0.009399999999999999
F0.08
tp606
a(F0.004399999999999999
F0.10000000000000002
tp607
a(F0.008400000000000001
F0.075
tp608
a(F0.007400000000000001
F0.085
tp609
a(F0.0063999999999999994
F0.10500000000000002
tp610
a(F0.0094
F0.07
tp611
a(F0.005399999999999999
F0.09500000000000001
tp612
a(F0.0104
F0.075
tp613
a(F0.009400000000000002
F0.075
tp614
a(F0.0084
F0.07
tp615
a(F0.0073999999999999995
F0.10000000000000002
tp616
a(F0.0063999999999999994
F0.09500000000000001
tp617
a(F0.009400000000000002
F0.08
tp618
a(F0.0084
F0.09000000000000001
tp619
a(F0.005399999999999999
F0.10000000000000002
tp620
a(F0.0074
F0.07
tp621
a(F0.0074
F0.075
tp622
a(F0.0094
F0.085
tp623
a(F0.0063999999999999994
F0.085
tp624
a(F0.0073999999999999995
F0.09500000000000001
tp625
a(F0.0073999999999999995
F0.075
tp626
a(F0.0074
F0.08
tp627
a(F0.0084
F0.075
tp628
a(F0.0094
F0.075
tp629
a(F0.007400000000000001
F0.075
tp630
a(F0.009399999999999999
F0.075
tp631
a(F0.0084
F0.09500000000000001
tp632
a(F0.009399999999999999
F0.085
tp633
a(F0.0063999999999999994
F0.10000000000000002
tp634
a(F0.004399999999999999
F0.09500000000000001
tp635
a(F0.004399999999999999
F0.10500000000000002
tp636
a(F0.005399999999999999
F0.09000000000000001
tp637
a(F0.008400000000000001
F0.08
tp638
a(F0.0073999999999999995
F0.08
tp639
a(F0.0084
F0.085
tp640
ass.