(dp0
I0
(dp1
S'best_curve'
p2
cnumpy.core.multiarray
_reconstruct
p3
(cnumpy
ndarray
p4
(I0
tp5
S'b'
p6
tp7
Rp8
(I1
(L13L
tp9
cnumpy
dtype
p10
(S'f8'
p11
I0
I1
tp12
Rp13
(I3
S'<'
p14
NNNI-1
I-1
I0
tp15
bI00
S'\x12\xbfg|W\xdei@\xa1\xc8\x9ecY\xeft@z\xf0\r\xac\xcf\xee~@&W\xae\xb1\xaa\xa6\x83@\x88$@\x9a#q\x88@\xac\\T\x7f\xf3\x02\x8e@\x14\x0f\xa6e\xb4\x15\x92@(\x898U\xaa\xc9\x93@k\xf8CI6\x95\x95@!\x9b\x9d\xb7\x8e\xd0\x95@\x07L5\xfc\xfc4\x96@\x94\x9fg3\xd4\xca\x94@\x84Ze\x8cV\xe7\x93@'
p16
tp17
bsS'pq0'
p18
(lp19
cnumpy.core.multiarray
scalar
p20
(g13
S'\xd2\x9b\xd9\x07\x0c&\x81?'
p21
tp22
Rp23
ag20
(g13
S'\xe8\x0b\xf6\xa2\x010\xb0?'
p24
tp25
Rp26
asS'steps'
p27
I50
sS'params'
p28
(F0.008399999999999998
F0.08820000000000001
g20
(g13
S'3\xacc;>\x93\xd2@'
p29
tp30
Rp31
tp32
sS'fitness'
p33
g20
(g13
S'W\xed\xf6\x04_\xcb\xed?'
p34
tp35
Rp36
sS'path'
p37
(lp38
(F0.008400000000000001
F0.0682
tp39
a(F0.009399999999999999
F0.08820000000000001
tp40
a(F0.0104
F0.06319999999999999
tp41
a(F0.009399999999999999
F0.0732
tp42
a(F0.007399999999999998
F0.08820000000000001
tp43
a(F0.008400000000000001
F0.0732
tp44
a(F0.0114
F0.08820000000000001
tp45
a(F0.0114
F0.0732
tp46
a(F0.0084
F0.0582
tp47
a(F0.0114
F0.08320000000000001
tp48
a(F0.0094
F0.06319999999999999
tp49
a(F0.007399999999999998
F0.08320000000000001
tp50
a(F0.0104
F0.09320000000000002
tp51
a(F0.008399999999999998
F0.08820000000000001
tp52
a(F0.008400000000000001
F0.0632
tp53
a(F0.0104
F0.08320000000000001
tp54
a(F0.0104
F0.06820000000000001
tp55
a(F0.0094
F0.0732
tp56
a(F0.009399999999999999
F0.09320000000000002
tp57
a(F0.0094
F0.0632
tp58
a(F0.008399999999999998
F0.0732
tp59
a(F0.0104
F0.08820000000000001
tp60
a(F0.0104
F0.05820000000000001
tp61
a(F0.0084
F0.0632
tp62
a(F0.0104
F0.0782
tp63
a(F0.0104
F0.0632
tp64
a(F0.0074
F0.0582
tp65
a(F0.008399999999999998
F0.0782
tp66
a(F0.0094
F0.0782
tp67
a(F0.009399999999999999
F0.0682
tp68
a(F0.0104
F0.0682
tp69
a(F0.008400000000000001
F0.05820000000000001
tp70
a(F0.007399999999999998
F0.09320000000000002
tp71
a(F0.008400000000000001
F0.0782
tp72
a(F0.0074
F0.0682
tp73
a(F0.0114
F0.0782
tp74
a(F0.0094
F0.06820000000000001
tp75
a(F0.0114
F0.0682
tp76
a(F0.008400000000000001
F0.06319999999999999
tp77
a(F0.0094
F0.05820000000000001
tp78
a(F0.008399999999999998
F0.08320000000000001
tp79
a(F0.008400000000000001
F0.06820000000000001
tp80
a(F0.0094
F0.0682
tp81
a(F0.009399999999999999
F0.08320000000000001
tp82
a(F0.008399999999999998
F0.09320000000000002
tp83
a(F0.0074
F0.0632
tp84
a(F0.009399999999999999
F0.0782
tp85
a(F0.0084
F0.0682
tp86
a(F0.0094
F0.0582
tp87
a(F0.0104
F0.0732
tp88
assI1
(dp89
g2
g3
(g4
(I0
tp90
g6
tp91
Rp92
(I1
(L13L
tp93
g13
I00
S"l\xb8\xa6\x83exj@\xf1y\xca`\xb0jt@wN\xd1\x12\x94\x05\x80@\x9buj\xb2A\xeb\x85@D!\\\xa9r\xbe\x8a@t{AS\rC\x90@\xaf\x8f ]\x1a\xd1\x92@\x03\xdc'nff\x94@n\x98VN8\xb9\x95@n\x98VN8\xb9\x95@\x11\xa3\xf4\x83\xdcU\x95@H\xf1c\xd9\xae\x9f\x93@.nY5\x909\x92@"
p94
tp95
bsg18
(lp96
g20
(g13
S'\x16\xc1\xa00!\x84\x80?'
p97
tp98
Rp99
ag20
(g13
S'\r\xb1v\xa2m.\xb1?'
p100
tp101
Rp102
asg27
I43
sg28
(F0.0091
F0.09210000000000002
g20
(g13
S'pH[\x9e\x8fs\xd1@'
p103
tp104
Rp105
tp106
sg33
g20
(g13
S'\xec\x95\x02PD\xd0\xed?'
p107
tp108
Rp109
sg37
(lp110
(F0.0081
F0.0721
tp111
a(F0.0081
F0.07210000000000001
tp112
a(F0.0081
F0.0671
tp113
a(F0.0091
F0.0671
tp114
a(F0.0091
F0.0721
tp115
a(F0.0071
F0.0621
tp116
a(F0.0091
F0.09210000000000002
tp117
a(F0.011100000000000002
F0.08710000000000001
tp118
a(F0.0091
F0.09710000000000002
tp119
a(F0.0091
F0.0821
tp120
a(F0.0091
F0.06210000000000001
tp121
a(F0.012100000000000003
F0.0771
tp122
a(F0.0081
F0.09710000000000002
tp123
a(F0.010100000000000001
F0.08710000000000001
tp124
a(F0.0081
F0.08710000000000001
tp125
a(F0.0091
F0.06709999999999999
tp126
a(F0.0081
F0.0621
tp127
a(F0.010100000000000001
F0.06210000000000001
tp128
a(F0.0071
F0.0721
tp129
a(F0.010100000000000001
F0.0821
tp130
a(F0.012100000000000003
F0.0721
tp131
a(F0.0091
F0.0621
tp132
a(F0.011100000000000002
F0.09210000000000002
tp133
a(F0.011100000000000002
F0.0821
tp134
a(F0.010100000000000001
F0.09710000000000002
tp135
a(F0.0081
F0.06210000000000001
tp136
a(F0.012100000000000003
F0.0821
tp137
a(F0.0081
F0.09210000000000002
tp138
a(F0.011100000000000002
F0.0721
tp139
a(F0.0081
F0.06709999999999999
tp140
a(F0.0091
F0.0771
tp141
a(F0.010100000000000001
F0.07210000000000001
tp142
a(F0.010100000000000001
F0.0721
tp143
a(F0.0071
F0.0671
tp144
a(F0.0091
F0.08710000000000001
tp145
a(F0.0081
F0.0771
tp146
a(F0.010100000000000001
F0.06709999999999999
tp147
a(F0.0091
F0.07210000000000001
tp148
a(F0.010100000000000001
F0.0671
tp149
a(F0.0081
F0.0821
tp150
a(F0.010100000000000001
F0.0771
tp151
a(F0.010100000000000001
F0.09210000000000002
tp152
a(F0.011100000000000002
F0.0771
tp153
assI2
(dp154
g2
g3
(g4
(I0
tp155
g6
tp156
Rp157
(I1
(L13L
tp158
g13
I00
S'e\xb7RW\xbeQi@q&e\xfa\xa8\xf8t@/\x8f3\xd5\xe1\xc0\x7f@\x1b\x90\x07V\x86\xa1\x84@#}\x1a\xa5\xb7\xea\x8a@\x00\xab\xd5KUF\x90@\xaf\xe6\xd7\xc9\xf4\xd5\x92@\x9e\xab\x1b\x80\xd2\x08\x95@\xc3\x8e+\x04\x03\xa2\x95@\xd0\xadr&\xfc\x02\x96@\x8e\x1b\xa04\xee>\x95@X\x9f\x83\xab\t\xbb\x93@\x95_\xf6zU\x98\x91@'
p159
tp160
bsg18
(lp161
g20
(g13
S'\xd1?gd\xa5\xcaz?'
p162
tp163
Rp164
ag20
(g13
S'\x92iYu3\xeb\xaf?'
p165
tp166
Rp167
asg27
I47
sg28
(F0.0085
F0.09730000000000003
g20
(g13
S"h\xd7d\xb7\xe6'\xd1@"
p168
tp169
Rp170
tp171
sg33
g20
(g13
S'\xd9Q\xc8w\xa1\xe8\xed?'
p172
tp173
Rp174
sg37
(lp175
(F0.0065
F0.0623
tp176
a(F0.009500000000000001
F0.0623
tp177
a(F0.010500000000000002
F0.09230000000000002
tp178
a(F0.0075
F0.0673
tp179
a(F0.0085
F0.057300000000000004
tp180
a(F0.007500000000000001
F0.07730000000000001
tp181
a(F0.007500000000000001
F0.0623
tp182
a(F0.009500000000000001
F0.0673
tp183
a(F0.010500000000000002
F0.08730000000000002
tp184
a(F0.0085
F0.08230000000000001
tp185
a(F0.0065
F0.0573
tp186
a(F0.0085
F0.0723
tp187
a(F0.009500000000000001
F0.08230000000000001
tp188
a(F0.009500000000000001
F0.07730000000000001
tp189
a(F0.007500000000000001
F0.08730000000000002
tp190
a(F0.0065
F0.0673
tp191
a(F0.009500000000000001
F0.09730000000000003
tp192
a(F0.0065
F0.057300000000000004
tp193
a(F0.010500000000000002
F0.07730000000000001
tp194
a(F0.010500000000000002
F0.0673
tp195
a(F0.007500000000000001
F0.0673
tp196
a(F0.007500000000000001
F0.09730000000000003
tp197
a(F0.0085
F0.09730000000000003
tp198
a(F0.0075
F0.057300000000000004
tp199
a(F0.0085
F0.07730000000000001
tp200
a(F0.0055
F0.0623
tp201
a(F0.009500000000000001
F0.10230000000000003
tp202
a(F0.007500000000000001
F0.0723
tp203
a(F0.007500000000000001
F0.08230000000000001
tp204
a(F0.009500000000000001
F0.0723
tp205
a(F0.0075
F0.0623
tp206
a(F0.0075
F0.0573
tp207
a(F0.009500000000000001
F0.08730000000000002
tp208
a(F0.0075
F0.0723
tp209
a(F0.010500000000000002
F0.08230000000000001
tp210
a(F0.0085
F0.0673
tp211
a(F0.007500000000000001
F0.09230000000000002
tp212
a(F0.0055
F0.0673
tp213
a(F0.0085
F0.08730000000000002
tp214
a(F0.0085
F0.0623
tp215
a(F0.0085
F0.09230000000000002
tp216
a(F0.010500000000000002
F0.0723
tp217
a(F0.0065
F0.0723
tp218
a(F0.0085
F0.10230000000000003
tp219
a(F0.009500000000000001
F0.09230000000000002
tp220
a(F0.007500000000000001
F0.10230000000000003
tp221
a(F0.0055
F0.0573
tp222
assI3
(dp223
g2
g3
(g4
(I0
tp224
g6
tp225
Rp226
(I1
(L13L
tp227
g13
I00
S"\xd1\xa9\x92w\xae\x86g@\x12\t\x15f\x02er@=\xd7Y\x18'\xc7{@\x92O\x13\xc8 \x15\x83@\xae\xe3\xf2\xb5\xbeQ\x89@t\x94\xa6e\xf1\xa5\x8e@\xda=\x91\xec\xdd;\x92@4\xde\x04\xf2\x9c\xa8\x94@H\xe6v\x18]5\x95@)S\xb0\xc8\x0f\xbd\x95@.;\xb6\xb2\xc2\xe4\x95@\xe6O\xc6\xfc\x90V\x95@\x05.`\xd4\xcdc\x93@"
p228
tp229
bsg18
(lp230
g20
(g13
S'~f=\xf7d%z?'
p231
tp232
Rp233
ag20
(g13
S'n\xea\x96U\x93\x8a\xb0?'
p234
tp235
Rp236
asg27
I74
sg28
(F0.007400000000000001
F0.09960000000000002
g20
(g13
S'\x90r\xb6\x9b<\x9f\xd1@'
p237
tp238
Rp239
tp240
sg33
g20
(g13
S'q\xdf\\\x95?\x15\xee?'
p241
tp242
Rp243
sg37
(lp244
(F0.0074
F0.06960000000000001
tp245
a(F0.0054
F0.0646
tp246
a(F0.011400000000000004
F0.08460000000000002
tp247
a(F0.010400000000000003
F0.06960000000000001
tp248
a(F0.007400000000000001
F0.09460000000000002
tp249
a(F0.010400000000000003
F0.07960000000000002
tp250
a(F0.006400000000000001
F0.10460000000000003
tp251
a(F0.008400000000000001
F0.08960000000000001
tp252
a(F0.011400000000000004
F0.08460000000000001
tp253
a(F0.009400000000000002
F0.08460000000000002
tp254
a(F0.009400000000000002
F0.07460000000000001
tp255
a(F0.0074
F0.05960000000000001
tp256
a(F0.010400000000000003
F0.08460000000000002
tp257
a(F0.009400000000000002
F0.07960000000000002
tp258
a(F0.0054
F0.0696
tp259
a(F0.009400000000000002
F0.09460000000000002
tp260
a(F0.010400000000000003
F0.09460000000000002
tp261
a(F0.006400000000000001
F0.09460000000000002
tp262
a(F0.0064
F0.06960000000000001
tp263
a(F0.007400000000000001
F0.0646
tp264
a(F0.0074
F0.0746
tp265
a(F0.008400000000000001
F0.06459999999999999
tp266
a(F0.009400000000000002
F0.06960000000000001
tp267
a(F0.008400000000000001
F0.09460000000000002
tp268
a(F0.008400000000000001
F0.05960000000000001
tp269
a(F0.009400000000000002
F0.08460000000000001
tp270
a(F0.007400000000000001
F0.09960000000000002
tp271
a(F0.007400000000000001
F0.10460000000000003
tp272
a(F0.008400000000000001
F0.0646
tp273
a(F0.007400000000000001
F0.08960000000000001
tp274
a(F0.008400000000000001
F0.10960000000000003
tp275
a(F0.006400000000000001
F0.10960000000000003
tp276
a(F0.011400000000000004
F0.08960000000000001
tp277
a(F0.010400000000000003
F0.0746
tp278
a(F0.007400000000000001
F0.0746
tp279
a(F0.007400000000000001
F0.0696
tp280
a(F0.010400000000000003
F0.08460000000000001
tp281
a(F0.008400000000000001
F0.0796
tp282
a(F0.010400000000000003
F0.07460000000000001
tp283
a(F0.006400000000000001
F0.09960000000000002
tp284
a(F0.0064
F0.0696
tp285
a(F0.0074
F0.0696
tp286
a(F0.010400000000000003
F0.08960000000000001
tp287
a(F0.0064
F0.06459999999999999
tp288
a(F0.0074
F0.06459999999999999
tp289
a(F0.008400000000000001
F0.08460000000000001
tp290
a(F0.011400000000000004
F0.07460000000000001
tp291
a(F0.0074
F0.0646
tp292
a(F0.007400000000000001
F0.10960000000000003
tp293
a(F0.009400000000000002
F0.09960000000000002
tp294
a(F0.009400000000000002
F0.0746
tp295
a(F0.008400000000000001
F0.0746
tp296
a(F0.008400000000000001
F0.09960000000000002
tp297
a(F0.009400000000000002
F0.08960000000000001
tp298
a(F0.0064
F0.0746
tp299
a(F0.008400000000000001
F0.07460000000000001
tp300
a(F0.011400000000000004
F0.07960000000000002
tp301
a(F0.008400000000000001
F0.06960000000000001
tp302
a(F0.007400000000000001
F0.0796
tp303
a(F0.008400000000000001
F0.0696
tp304
a(F0.0074
F0.0596
tp305
a(F0.011400000000000004
F0.0796
tp306
a(F0.007400000000000001
F0.06960000000000001
tp307
a(F0.009400000000000002
F0.0696
tp308
a(F0.009400000000000002
F0.0646
tp309
a(F0.008400000000000001
F0.07960000000000002
tp310
a(F0.010400000000000003
F0.0796
tp311
a(F0.0064
F0.0646
tp312
a(F0.009400000000000002
F0.0796
tp313
a(F0.007400000000000001
F0.07460000000000001
tp314
a(F0.0054
F0.0596
tp315
a(F0.0064
F0.0596
tp316
a(F0.008400000000000001
F0.10460000000000003
tp317
a(F0.0064
F0.05960000000000001
tp318
assI4
(dp319
g2
g3
(g4
(I0
tp320
g6
tp321
Rp322
(I1
(L13L
tp323
g13
I00
S'h\xca\xfb\x9cx\x82d@\x9e\xa4\xd6Bk\xa4r@\xabk\xa8\x9c\x1b\x8d}@\xe5 h\xf8\x08\x11\x84@\xa3&\xe3\x04_\x08\x8a@\xc0l\x9c\xe5>\xdb\x8f@\xd3\x17\x1dv\x0fu\x93@E\xb0\x0e_\xaf\xfc\x94@\x0f\xdc>1\t\xeb\x95@\x07~\xa7\xd8U\x86\x96@\xe1k\x11\xd4bN\x95@W\xc6\x15\xb2\x06X\x93@\x05\xee8e?\xc4\x91@'
p324
tp325
bsg18
(lp326
g20
(g13
S'[\xbfq\x8e^\xca\x83?'
p327
tp328
Rp329
ag20
(g13
S'\xfd\x85]\xf0\xab\xfb\xb0?'
p330
tp331
Rp332
asg27
I53
sg28
(F0.007699999999999999
F0.10630000000000003
g20
(g13
S'^1i\xdb\x17|\xd0@'
p333
tp334
Rp335
tp336
sg33
g20
(g13
S'\xf5~\x811\xc5 \xee?'
p337
tp338
Rp339
sg37
(lp340
(F0.007699999999999999
F0.11130000000000004
tp341
a(F0.0087
F0.08630000000000002
tp342
a(F0.0097
F0.09130000000000002
tp343
a(F0.0107
F0.0613
tp344
a(F0.010700000000000001
F0.0763
tp345
a(F0.010700000000000001
F0.09130000000000002
tp346
a(F0.006699999999999999
F0.11130000000000004
tp347
a(F0.0087
F0.0713
tp348
a(F0.007699999999999999
F0.08630000000000002
tp349
a(F0.0097
F0.0613
tp350
a(F0.011699999999999999
F0.08630000000000002
tp351
a(F0.011699999999999999
F0.0663
tp352
a(F0.011699999999999999
F0.08130000000000001
tp353
a(F0.011699999999999999
F0.0763
tp354
a(F0.0107
F0.08130000000000001
tp355
a(F0.011700000000000002
F0.0713
tp356
a(F0.0097
F0.0763
tp357
a(F0.010700000000000001
F0.0713
tp358
a(F0.007699999999999999
F0.09130000000000002
tp359
a(F0.0087
F0.10630000000000003
tp360
a(F0.0107
F0.0763
tp361
a(F0.006699999999999999
F0.09630000000000002
tp362
a(F0.0097
F0.08130000000000001
tp363
a(F0.0107
F0.0713
tp364
a(F0.0107
F0.08630000000000002
tp365
a(F0.0087
F0.09130000000000002
tp366
a(F0.0087
F0.08130000000000001
tp367
a(F0.007699999999999999
F0.10130000000000003
tp368
a(F0.006699999999999999
F0.10630000000000003
tp369
a(F0.011700000000000002
F0.08130000000000001
tp370
a(F0.011700000000000002
F0.0763
tp371
a(F0.0087
F0.0613
tp372
a(F0.0097
F0.09630000000000002
tp373
a(F0.0097
F0.0663
tp374
a(F0.007699999999999999
F0.09630000000000002
tp375
a(F0.0087
F0.0763
tp376
a(F0.0097
F0.10130000000000003
tp377
a(F0.0087
F0.0663
tp378
a(F0.0097
F0.0713
tp379
a(F0.0087
F0.11130000000000004
tp380
a(F0.010700000000000001
F0.0663
tp381
a(F0.0087
F0.10130000000000003
tp382
a(F0.006699999999999999
F0.09130000000000002
tp383
a(F0.007699999999999999
F0.08130000000000001
tp384
a(F0.007699999999999999
F0.10630000000000003
tp385
a(F0.011700000000000002
F0.08630000000000002
tp386
a(F0.011699999999999999
F0.0713
tp387
a(F0.010700000000000001
F0.08630000000000002
tp388
a(F0.010700000000000001
F0.08130000000000001
tp389
a(F0.006699999999999999
F0.10130000000000003
tp390
a(F0.0097
F0.08630000000000002
tp391
a(F0.0107
F0.0663
tp392
a(F0.0087
F0.09630000000000002
tp393
assI5
(dp394
g2
g3
(g4
(I0
tp395
g6
tp396
Rp397
(I1
(L13L
tp398
g13
I00
S")\xcb-*\x1e\x8ak@\x1f=(\xb6&\xbct@\xbe\x98t9\xf2>\x7f@\xb3\xa0\xc4\xdcf\xdf\x84@\xd5\x82\x0b\xedMR\x8b@\x0c'\xe6\xd3\xf2\xcb\x8f@\xdfQ\xf9\x93\x80\xc9\x92@G\xce\xa1z\xce\x85\x94@g\x11\xe9\xadW\x9e\x95@\x7f\x00\x8a\x8e\xb3\x81\x95@\xeb\x01\x8e#\x07 \x95@\x11\xca0\x05\x96\x1a\x94@=L\x84\x89\xf4\xbf\x92@"
p399
tp400
bsg18
(lp401
g20
(g13
S'\xcc\xa8\x8b9L}\x80?'
p402
tp403
Rp404
ag20
(g13
S's\xdd\x0eY\x90f\xb0?'
p405
tp406
Rp407
asg27
I43
sg28
(F0.0091
F0.08910000000000001
g20
(g13
S'D\xd0u\xa3\xeb\xed\xd1@'
p408
tp409
Rp410
tp411
sg33
g20
(g13
S'\xcc\x19\xeb\xd5:\xf7\xed?'
p412
tp413
Rp414
sg37
(lp415
(F0.0081
F0.05910000000000001
tp416
a(F0.0091
F0.05910000000000001
tp417
a(F0.0081
F0.08910000000000001
tp418
a(F0.0081
F0.0741
tp419
a(F0.0081
F0.0591
tp420
a(F0.010100000000000001
F0.06409999999999999
tp421
a(F0.0081
F0.06409999999999999
tp422
a(F0.010100000000000001
F0.06910000000000001
tp423
a(F0.012100000000000003
F0.0691
tp424
a(F0.0091
F0.06409999999999999
tp425
a(F0.0081
F0.08410000000000001
tp426
a(F0.010100000000000001
F0.08410000000000001
tp427
a(F0.011100000000000002
F0.0791
tp428
a(F0.0091
F0.09410000000000002
tp429
a(F0.010100000000000001
F0.09410000000000002
tp430
a(F0.0091
F0.0591
tp431
a(F0.010100000000000001
F0.0641
tp432
a(F0.0081
F0.0641
tp433
a(F0.012100000000000003
F0.0791
tp434
a(F0.0081
F0.09410000000000002
tp435
a(F0.011100000000000002
F0.0691
tp436
a(F0.011100000000000002
F0.06409999999999999
tp437
a(F0.010100000000000001
F0.0741
tp438
a(F0.010100000000000001
F0.0791
tp439
a(F0.011100000000000002
F0.08410000000000001
tp440
a(F0.0091
F0.0791
tp441
a(F0.010100000000000001
F0.08910000000000001
tp442
a(F0.012100000000000003
F0.0741
tp443
a(F0.0091
F0.0641
tp444
a(F0.010100000000000001
F0.05910000000000001
tp445
a(F0.011100000000000002
F0.08910000000000001
tp446
a(F0.011100000000000002
F0.0741
tp447
a(F0.0091
F0.0741
tp448
a(F0.0081
F0.0691
tp449
a(F0.0091
F0.0691
tp450
a(F0.0091
F0.06910000000000001
tp451
a(F0.0071
F0.0641
tp452
a(F0.010100000000000001
F0.0691
tp453
a(F0.0081
F0.06910000000000001
tp454
a(F0.0071
F0.0591
tp455
a(F0.0071
F0.0691
tp456
a(F0.0091
F0.08410000000000001
tp457
a(F0.0091
F0.08910000000000001
tp458
assI6
(dp459
g2
g3
(g4
(I0
tp460
g6
tp461
Rp462
(I1
(L13L
tp463
g13
I00
S"\x19\xba\xf7\x91*-p@\x89A\x92f\xe8;w@\xa2\xce\xa6\x0b\xc9\xac\x80@0]\xd4\x92#\x94\x86@\n\xfe\xa7\xd2\xb9\x87\x8b@f\x83\xc1\x9f\xb1G\x90@9\xb5m\xa0\xf0\xc7\x92@syd%\\\xb7\x94@s<2~%\x8a\x95@s<2~%\x8a\x95@b ^#'\xa6\x94@\x14\xa0p\xc0T}\x93@\x07\xc2\xae\xa1M\x1d\x92@"
p464
tp465
bsg18
(lp466
g20
(g13
S'%\x03\xed.\x08\xdc\x81?'
p467
tp468
Rp469
ag20
(g13
S'\xdf-\x001\x80\xee\xb0?'
p470
tp471
Rp472
asg27
I35
sg28
(F0.010700000000000001
F0.08610000000000001
g20
(g13
S'\x0e\x19\xf5y\x01\x81\xd1@'
p473
tp474
Rp475
tp476
sg33
g20
(g13
S'\x88\x17z\xc0\xd5\x8b\xed?'
p477
tp478
Rp479
sg37
(lp480
(F0.011700000000000002
F0.08610000000000001
tp481
a(F0.0097
F0.0811
tp482
a(F0.010700000000000001
F0.0811
tp483
a(F0.010700000000000001
F0.0661
tp484
a(F0.0097
F0.08610000000000001
tp485
a(F0.0097
F0.0711
tp486
a(F0.0097
F0.09110000000000001
tp487
a(F0.0087
F0.06110000000000001
tp488
a(F0.0087
F0.07110000000000001
tp489
a(F0.010700000000000001
F0.06609999999999999
tp490
a(F0.011700000000000002
F0.0811
tp491
a(F0.011700000000000002
F0.09110000000000001
tp492
a(F0.0077
F0.0661
tp493
a(F0.0097
F0.07110000000000001
tp494
a(F0.0097
F0.06609999999999999
tp495
a(F0.0087
F0.0711
tp496
a(F0.0077
F0.0611
tp497
a(F0.0097
F0.0761
tp498
a(F0.010700000000000001
F0.0711
tp499
a(F0.0097
F0.0661
tp500
a(F0.0087
F0.0811
tp501
a(F0.0087
F0.0661
tp502
a(F0.0097
F0.06110000000000001
tp503
a(F0.011700000000000002
F0.0711
tp504
a(F0.010700000000000001
F0.0761
tp505
a(F0.0087
F0.0611
tp506
a(F0.010700000000000001
F0.08610000000000001
tp507
a(F0.0097
F0.0611
tp508
a(F0.010700000000000001
F0.07110000000000001
tp509
a(F0.0087
F0.06609999999999999
tp510
a(F0.0077
F0.0711
tp511
a(F0.010700000000000001
F0.09110000000000001
tp512
a(F0.0087
F0.0761
tp513
a(F0.010700000000000001
F0.06110000000000001
tp514
a(F0.011700000000000002
F0.0761
tp515
assI7
(dp516
g2
g3
(g4
(I0
tp517
g6
tp518
Rp519
(I1
(L13L
tp520
g13
I00
S"\xbf\xae\xf1k\x80\xfed@+\x97\xea\xbb\x87er@\xa8\x0b\xdf\x02\xd9q|@>\xd0'\xd2\xe6\xfb\x83@\x0b\x99\x80\x9e\x99C\x8a@qTv\x8e\x88\xc3\x8f@\x1dG\x06\xfd\x17\xe4\x92@\x9d\x1f6\xbd\x14\xfb\x94@\xa1\xab+\xb1Q\xc8\x95@*\xe8\x19l\x00\xd6\x95@s5#Zbb\x95@\x0c\x8e\x8a'\xbcC\x94@:\xe4\x01\x0e)q\x92@"
p521
tp522
bsg18
(lp523
g20
(g13
S'T\x8f\x86\xb3~4\x83?'
p524
tp525
Rp526
ag20
(g13
S'\xce\xec\x0f\xbci\xe0\xb0?'
p527
tp528
Rp529
asg27
I50
sg28
(F0.007399999999999998
F0.10590000000000004
g20
(g13
S'\x07\xe5\xd0/\xcb\xb3\xd0@'
p530
tp531
Rp532
tp533
sg33
g20
(g13
S'{\xf6\x86\xb6\xf0=\xee?'
p534
tp535
Rp536
sg37
(lp537
(F0.0104
F0.09090000000000002
tp538
a(F0.0104
F0.08590000000000002
tp539
a(F0.0114
F0.07590000000000001
tp540
a(F0.008399999999999998
F0.08590000000000002
tp541
a(F0.006399999999999998
F0.11090000000000004
tp542
a(F0.0114
F0.0709
tp543
a(F0.008399999999999998
F0.10590000000000004
tp544
a(F0.0094
F0.0659
tp545
a(F0.008400000000000001
F0.07590000000000001
tp546
a(F0.009399999999999999
F0.10090000000000003
tp547
a(F0.0114
F0.08590000000000002
tp548
a(F0.007399999999999998
F0.10590000000000004
tp549
a(F0.006399999999999998
F0.10090000000000003
tp550
a(F0.007399999999999998
F0.11090000000000004
tp551
a(F0.0114
F0.08090000000000001
tp552
a(F0.0104
F0.0709
tp553
a(F0.008399999999999998
F0.09090000000000002
tp554
a(F0.0104
F0.0609
tp555
a(F0.0094
F0.0709
tp556
a(F0.0104
F0.09590000000000003
tp557
a(F0.008399999999999998
F0.11090000000000004
tp558
a(F0.009399999999999999
F0.07590000000000001
tp559
a(F0.009399999999999999
F0.09090000000000002
tp560
a(F0.0084
F0.0659
tp561
a(F0.009399999999999999
F0.0659
tp562
a(F0.009399999999999999
F0.08090000000000001
tp563
a(F0.007399999999999998
F0.09590000000000003
tp564
a(F0.008400000000000001
F0.0659
tp565
a(F0.0104
F0.0659
tp566
a(F0.006399999999999998
F0.10590000000000004
tp567
a(F0.012400000000000001
F0.07590000000000001
tp568
a(F0.009399999999999999
F0.10590000000000004
tp569
a(F0.008399999999999998
F0.08090000000000001
tp570
a(F0.0104
F0.07590000000000001
tp571
a(F0.012400000000000001
F0.0709
tp572
a(F0.0114
F0.0659
tp573
a(F0.007399999999999998
F0.09090000000000002
tp574
a(F0.008399999999999998
F0.10090000000000003
tp575
a(F0.008399999999999998
F0.09590000000000003
tp576
a(F0.0094
F0.07590000000000001
tp577
a(F0.0084
F0.0609
tp578
a(F0.008400000000000001
F0.0709
tp579
a(F0.0084
F0.0709
tp580
a(F0.009399999999999999
F0.09590000000000003
tp581
a(F0.0094
F0.0609
tp582
a(F0.012400000000000001
F0.0659
tp583
a(F0.009399999999999999
F0.0709
tp584
a(F0.0104
F0.08090000000000001
tp585
a(F0.007399999999999998
F0.10090000000000003
tp586
a(F0.009399999999999999
F0.08590000000000002
tp587
assI8
(dp588
g2
g3
(g4
(I0
tp589
g6
tp590
Rp591
(I1
(L13L
tp592
g13
I00
S'\xb8I\x824b\xd4l@\x04\x0cy\xa1"\x88v@\x81\xdd\xaan\xd5"\x80@\x17\'m\x07\x05\xce\x84@\x00i\xd5}\x01E\x8b@G\x0f\xbbri\x02\x90@\x94.\xae\x80\xe6y\x92@\xec\xf0\xe4vb;\x94@\x88$OQIg\x95@<Y\xaf]<\xbe\x95@\xad: \xf4\x05h\x95@]\xfd\xe8wG3\x94@\xe2$\xe1\xde\x0eq\x92@'
p593
tp594
bsg18
(lp595
g20
(g13
S'\xfb\xe0i\xd4\xfb\\\x83?'
p596
tp597
Rp598
ag20
(g13
S'\xb0\x8e\xc6\xc9\xe4\xfa\xb0?'
p599
tp600
Rp601
asg27
I39
sg28
(F0.009500000000000001
F0.08630000000000002
g20
(g13
S'\xa9\x90\xa6\x04_\xfd\xd1@'
p602
tp603
Rp604
tp605
sg33
g20
(g13
S'\x14@\to`\xab\xed?'
p606
tp607
Rp608
sg37
(lp609
(F0.0115
F0.08130000000000001
tp610
a(F0.0105
F0.08130000000000001
tp611
a(F0.0115
F0.0713
tp612
a(F0.009500000000000001
F0.0713
tp613
a(F0.010499999999999999
F0.0713
tp614
a(F0.0085
F0.0713
tp615
a(F0.009500000000000001
F0.08130000000000001
tp616
a(F0.0105
F0.0713
tp617
a(F0.0095
F0.0663
tp618
a(F0.0095
F0.0613
tp619
a(F0.0125
F0.0663
tp620
a(F0.0085
F0.08630000000000002
tp621
a(F0.0085
F0.0663
tp622
a(F0.010500000000000002
F0.08130000000000001
tp623
a(F0.0125
F0.0713
tp624
a(F0.007500000000000001
F0.08630000000000002
tp625
a(F0.010500000000000002
F0.09130000000000002
tp626
a(F0.0095
F0.0713
tp627
a(F0.009500000000000001
F0.0663
tp628
a(F0.0115
F0.0763
tp629
a(F0.007500000000000001
F0.08130000000000001
tp630
a(F0.009500000000000001
F0.08630000000000002
tp631
a(F0.0085
F0.0763
tp632
a(F0.0105
F0.0663
tp633
a(F0.009500000000000001
F0.0763
tp634
a(F0.0105
F0.0613
tp635
a(F0.010499999999999999
F0.0663
tp636
a(F0.0085
F0.08130000000000001
tp637
a(F0.0085
F0.09130000000000002
tp638
a(F0.007500000000000001
F0.09130000000000002
tp639
a(F0.010499999999999999
F0.0763
tp640
a(F0.0125
F0.0763
tp641
a(F0.0085
F0.0613
tp642
a(F0.009500000000000001
F0.09130000000000002
tp643
a(F0.010500000000000002
F0.0763
tp644
a(F0.010500000000000002
F0.08630000000000002
tp645
a(F0.0095
F0.0763
tp646
a(F0.0105
F0.0763
tp647
a(F0.0115
F0.0663
tp648
assI9
(dp649
g2
g3
(g4
(I0
tp650
g6
tp651
Rp652
(I1
(L13L
tp653
g13
I00
S'b\x91$\x89\x17\x98l@&\x17EM\x96\xb4u@r\xd0\xb1\x08_\x97\x7f@M\xd0AG3\x7f\x84@\xdc\x13\x1b$\xbd\t\x8a@\xdbV?W\x1d\xea\x8e@R\x88\xd4\xed|\xf5\x91@\x14_(><\x15\x94@x2\x9a\x84\x0c\xfe\x94@\xcfM\x1d4\x88\xaa\x95@\x02\x80\x05\xaeB\xdb\x95@q\xd6"9\xe2\xdf\x94@O\xd5\xb8\xe5\x8e\x8b\x93@'
p654
tp655
bsg18
(lp656
g20
(g13
S"\x1b\xa9\x85_\x8e'\x83?"
p657
tp658
Rp659
ag20
(g13
S'/;jde:\xb1?'
p660
tp661
Rp662
asg27
I30
sg28
(F0.009399999999999999
F0.08230000000000001
g20
(g13
S'\x003\xf3=+\xe2\xd2@'
p663
tp664
Rp665
tp666
sg33
g20
(g13
S'lP\x83\xeb\xf7\xbb\xed?'
p667
tp668
Rp669
sg37
(lp670
(F0.0084
F0.0723
tp671
a(F0.0084
F0.0623
tp672
a(F0.0114
F0.0673
tp673
a(F0.0104
F0.0623
tp674
a(F0.0084
F0.0673
tp675
a(F0.008399999999999998
F0.08730000000000002
tp676
a(F0.008399999999999998
F0.08230000000000001
tp677
a(F0.0094
F0.0623
tp678
a(F0.008399999999999998
F0.07730000000000001
tp679
a(F0.012400000000000001
F0.0723
tp680
a(F0.0114
F0.08730000000000002
tp681
a(F0.0114
F0.0623
tp682
a(F0.009399999999999999
F0.08230000000000001
tp683
a(F0.009399999999999999
F0.0623
tp684
a(F0.0104
F0.08730000000000002
tp685
a(F0.0114
F0.0723
tp686
a(F0.0104
F0.0723
tp687
a(F0.012400000000000001
F0.08230000000000001
tp688
a(F0.0114
F0.07730000000000001
tp689
a(F0.009399999999999999
F0.08730000000000002
tp690
a(F0.009399999999999999
F0.0723
tp691
a(F0.012400000000000001
F0.07730000000000001
tp692
a(F0.0094
F0.0673
tp693
a(F0.0094
F0.0723
tp694
a(F0.009399999999999999
F0.0673
tp695
a(F0.009399999999999999
F0.07730000000000001
tp696
a(F0.0104
F0.07730000000000001
tp697
a(F0.0104
F0.08230000000000001
tp698
a(F0.0114
F0.08230000000000001
tp699
a(F0.0104
F0.0673
tp700
ass.