(dp0
I0
(dp1
S'best_curve'
p2
cnumpy.core.multiarray
_reconstruct
p3
(cnumpy
ndarray
p4
(I0
tp5
S'b'
p6
tp7
Rp8
(I1
(L8L
tp9
cnumpy
dtype
p10
(S'f8'
p11
I0
I1
tp12
Rp13
(I3
S'<'
p14
NNNI-1
I-1
I0
tp15
bI00
S'\xf8uZwq\xbc\x89@f\xde\xc6\x98*\r\x99@n(\xea\xe2\xd4{\xa7@\xa5R\\\x10\xfd3\xb2@@=\xc9\xac\xb2(\xb7@\x7f\x13\xe7\x93\x14\xbc\xb8@\x8d\xc1d\xeb\xb4Z\xb6@\xa8\xd1{\xd0\xae>\xb1@'
p16
tp17
bsS'pq0'
p18
(lp19
cnumpy.core.multiarray
scalar
p20
(g13
S'\x02G\xdfU\x81\xc2\x8e?'
p21
tp22
Rp23
ag20
(g13
S'8P\xeb"P\xa4\xbd?'
p24
tp25
Rp26
asS'steps'
p27
I42
sS'params'
p28
(F0.012999999999999998
F0.1458
g20
(g13
S'`0\xff\xff\x10\xff\xe3@'
p29
tp30
Rp31
tp32
sS'fitness'
p33
g20
(g13
S'kks:\x86`\xef?'
p34
tp35
Rp36
sS'path'
p37
(lp38
(F0.015
F0.1258
tp39
a(F0.011999999999999997
F0.1408
tp40
a(F0.015
F0.12079999999999999
tp41
a(F0.013999999999999999
F0.1458
tp42
a(F0.016
F0.1108
tp43
a(F0.015
F0.1458
tp44
a(F0.015
F0.1308
tp45
a(F0.016
F0.1358
tp46
a(F0.013999999999999999
F0.1258
tp47
a(F0.012999999999999998
F0.1358
tp48
a(F0.013999999999999999
F0.1408
tp49
a(F0.017
F0.1308
tp50
a(F0.012999999999999998
F0.1458
tp51
a(F0.014
F0.1208
tp52
a(F0.017
F0.1258
tp53
a(F0.013999999999999999
F0.12079999999999999
tp54
a(F0.013999999999999999
F0.15080000000000002
tp55
a(F0.011999999999999997
F0.1458
tp56
a(F0.017
F0.1358
tp57
a(F0.016
F0.1158
tp58
a(F0.015
F0.1358
tp59
a(F0.012999999999999998
F0.1308
tp60
a(F0.016
F0.1258
tp61
a(F0.014
F0.1158
tp62
a(F0.012999999999999998
F0.15080000000000002
tp63
a(F0.015
F0.1208
tp64
a(F0.016
F0.1208
tp65
a(F0.012999999999999998
F0.1408
tp66
a(F0.011999999999999997
F0.15080000000000002
tp67
a(F0.017
F0.12079999999999999
tp68
a(F0.014
F0.1108
tp69
a(F0.013999999999999999
F0.1358
tp70
a(F0.015
F0.1158
tp71
a(F0.016
F0.12079999999999999
tp72
a(F0.015
F0.1408
tp73
a(F0.017
F0.1208
tp74
a(F0.015
F0.1108
tp75
a(F0.013999999999999999
F0.1208
tp76
a(F0.013999999999999999
F0.1158
tp77
a(F0.017
F0.1158
tp78
a(F0.016
F0.1308
tp79
a(F0.013999999999999999
F0.1308
tp80
assI1
(dp81
g2
g3
(g4
(I0
tp82
g6
tp83
Rp84
(I1
(L8L
tp85
g13
I00
S'\xa7\x88\x9c\x95\x1d\x92\x89@W\xd4\xc7\xf5\xc9\x93\x99@z\x9fo\x9aP\xaa\xa6@j\xfb5X\xd7\xa1\xb1@\x0b\xfa\x12Y\xfe\xeb\xb6@.g\x83\xb8]\xc1\xb8@\x14\xbe\xa5\x12h\xac\xb6@z\xfd\xa6\xdfw\xeb\xb1@'
p86
tp87
bsg18
(lp88
g20
(g13
S'\xc0\xa37F_k\x90?'
p89
tp90
Rp91
ag20
(g13
S'\xafX\x04\xf4C1\xbe?'
p92
tp93
Rp94
asg27
I46
sg28
(F0.012999999999999998
F0.1429
g20
(g13
S'\xfb\xdd\x82\xf01m\xe4@'
p95
tp96
Rp97
tp98
sg33
g20
(g13
S'-y\xa7\xe4\x9d]\xef?'
p99
tp100
Rp101
sg37
(lp102
(F0.016
F0.1179
tp103
a(F0.015
F0.1429
tp104
a(F0.012999999999999998
F0.1429
tp105
a(F0.012999999999999998
F0.1379
tp106
a(F0.012999999999999998
F0.1529
tp107
a(F0.015
F0.1329
tp108
a(F0.015
F0.1179
tp109
a(F0.015
F0.1229
tp110
a(F0.018000000000000002
F0.12789999999999999
tp111
a(F0.016
F0.1129
tp112
a(F0.015
F0.1379
tp113
a(F0.015
F0.1479
tp114
a(F0.016
F0.12289999999999998
tp115
a(F0.011999999999999997
F0.1529
tp116
a(F0.011999999999999997
F0.1479
tp117
a(F0.016
F0.1329
tp118
a(F0.018000000000000002
F0.11789999999999999
tp119
a(F0.013999999999999999
F0.1479
tp120
a(F0.010999999999999996
F0.1479
tp121
a(F0.013999999999999999
F0.1379
tp122
a(F0.013999999999999999
F0.1329
tp123
a(F0.013999999999999999
F0.12289999999999998
tp124
a(F0.016
F0.1379
tp125
a(F0.012999999999999998
F0.1329
tp126
a(F0.016
F0.11789999999999999
tp127
a(F0.011999999999999997
F0.1379
tp128
a(F0.015
F0.1129
tp129
a(F0.010999999999999996
F0.1429
tp130
a(F0.018000000000000002
F0.1229
tp131
a(F0.016
F0.12789999999999999
tp132
a(F0.017
F0.1179
tp133
a(F0.012999999999999998
F0.1479
tp134
a(F0.017
F0.1329
tp135
a(F0.015
F0.12289999999999998
tp136
a(F0.017
F0.12289999999999998
tp137
a(F0.017
F0.12789999999999999
tp138
a(F0.017
F0.1229
tp139
a(F0.011999999999999997
F0.1429
tp140
a(F0.015
F0.11789999999999999
tp141
a(F0.013999999999999999
F0.12789999999999999
tp142
a(F0.017
F0.11789999999999999
tp143
a(F0.010999999999999996
F0.1529
tp144
a(F0.013999999999999999
F0.1429
tp145
a(F0.017
F0.1129
tp146
a(F0.015
F0.12789999999999999
tp147
a(F0.016
F0.1229
tp148
assI2
(dp149
g2
g3
(g4
(I0
tp150
g6
tp151
Rp152
(I1
(L8L
tp153
g13
I00
S'\xe2s7\xb3\xdb\xc3\x8b@\xa4\xd0j\x88`\xdd\x9b@/\rd*\x17\xb6\xa7@\xb61j$\x0b\r\xb2@\xc1J\xdd\x8dY\xb4\xb6@gVj\xaefm\xb8@\xee\x7f\xf6\xdf\xadv\xb6@Dr\xd5\xf7\xef\xe2\xb1@'
p154
tp155
bsg18
(lp156
g20
(g13
S'\xc6\xc65\xa4_\xde\x90?'
p157
tp158
Rp159
ag20
(g13
S'\xe6\xed\x91\xcc\x7f\xbf\xbe?'
p160
tp161
Rp162
asg27
I31
sg28
(F0.014499999999999999
F0.1351
g20
(g13
S'I\xd1!\xd6n\xc4\xe4@'
p163
tp164
Rp165
tp166
sg33
g20
(g13
S'#\xab\xadg\x9bZ\xef?'
p167
tp168
Rp169
sg37
(lp170
(F0.013499999999999998
F0.1401
tp171
a(F0.0155
F0.1151
tp172
a(F0.014499999999999999
F0.1401
tp173
a(F0.0155
F0.1401
tp174
a(F0.0175
F0.1201
tp175
a(F0.012499999999999997
F0.1401
tp176
a(F0.014499999999999999
F0.1301
tp177
a(F0.0165
F0.1351
tp178
a(F0.014499999999999999
F0.12009999999999998
tp179
a(F0.0175
F0.1301
tp180
a(F0.013499999999999998
F0.1451
tp181
a(F0.0155
F0.1351
tp182
a(F0.0155
F0.1251
tp183
a(F0.0165
F0.1251
tp184
a(F0.014499999999999999
F0.1351
tp185
a(F0.0155
F0.1301
tp186
a(F0.0155
F0.12009999999999998
tp187
a(F0.013499999999999998
F0.1351
tp188
a(F0.0165
F0.1151
tp189
a(F0.012499999999999997
F0.1351
tp190
a(F0.014499999999999999
F0.1451
tp191
a(F0.0165
F0.1301
tp192
a(F0.013499999999999998
F0.1301
tp193
a(F0.0155
F0.1201
tp194
a(F0.014499999999999999
F0.1251
tp195
a(F0.012499999999999997
F0.1451
tp196
a(F0.0165
F0.1201
tp197
a(F0.0175
F0.1151
tp198
a(F0.0175
F0.1251
tp199
a(F0.0175
F0.12009999999999998
tp200
a(F0.0165
F0.12009999999999998
tp201
assI3
(dp202
g2
g3
(g4
(I0
tp203
g6
tp204
Rp205
(I1
(L8L
tp206
g13
I00
S'@\x0b\xda\x1f\x84_\x8c@t\xa9\xba\x8f\x94v\x9b@"\xad \x9a-\x98\xa7@,\r{g\xa2\x08\xb2@\x94`\x84\x15\xb6\x87\xb6@\xc2\xed\xa7\x8e\xe7C\xb8@\xe8\x8f\x1e\x0e\x91\xaa\xb6@\x88\x12S\xd3\xc3,\xb2@'
p207
tp208
bsg18
(lp209
g20
(g13
S'\xe9\xef/\xc6\xda\x1a\x90?'
p210
tp211
Rp212
ag20
(g13
S'\xc4\x9fl\x06\xf7\x11\xbe?'
p213
tp214
Rp215
asg27
I35
sg28
(F0.013699999999999997
F0.1375
g20
(g13
S'2#r\x02Q\xc1\xe4@'
p216
tp217
Rp218
tp219
sg33
g20
(g13
S'O\xae\xbc\x81)j\xef?'
p220
tp221
Rp222
sg37
(lp223
(F0.012699999999999996
F0.1325
tp224
a(F0.014699999999999998
F0.1275
tp225
a(F0.0157
F0.1125
tp226
a(F0.011699999999999995
F0.14250000000000002
tp227
a(F0.014699999999999998
F0.14250000000000002
tp228
a(F0.013699999999999997
F0.1375
tp229
a(F0.014699999999999998
F0.1225
tp230
a(F0.013699999999999997
F0.1275
tp231
a(F0.0177
F0.1175
tp232
a(F0.0157
F0.1325
tp233
a(F0.014699999999999998
F0.1375
tp234
a(F0.0157
F0.1175
tp235
a(F0.0177
F0.1275
tp236
a(F0.011699999999999995
F0.1375
tp237
a(F0.013699999999999997
F0.14250000000000002
tp238
a(F0.0167
F0.1325
tp239
a(F0.013699999999999997
F0.1225
tp240
a(F0.013699999999999997
F0.1325
tp241
a(F0.0157
F0.1275
tp242
a(F0.0147
F0.1125
tp243
a(F0.0167
F0.1225
tp244
a(F0.0157
F0.14250000000000002
tp245
a(F0.0177
F0.1225
tp246
a(F0.012699999999999996
F0.14250000000000002
tp247
a(F0.0147
F0.1225
tp248
a(F0.0157
F0.1225
tp249
a(F0.0167
F0.1125
tp250
a(F0.0147
F0.1175
tp251
a(F0.0167
F0.1275
tp252
a(F0.011699999999999995
F0.1325
tp253
a(F0.014699999999999998
F0.1325
tp254
a(F0.012699999999999996
F0.1375
tp255
a(F0.0157
F0.1375
tp256
a(F0.014699999999999998
F0.1175
tp257
a(F0.0167
F0.1175
tp258
assI4
(dp259
g2
g3
(g4
(I0
tp260
g6
tp261
Rp262
(I1
(L8L
tp263
g13
I00
S'\xd7\xd3\xd6\x17z<\x8b@E\xb5\xc9\xfc\xd7U\x9a@\x87\xa7i\x9aaN\xa7@N\xa5U\xbd\x88\xf3\xb1@\xda;\xbb\xf6\xc6\xeb\xb6@^\xc3\x87\xb4\xdb\x93\xb8@\xe6\xee\x96<\x90\x7f\xb6@\xeas\xb98R\xc4\xb1@'
p264
tp265
bsg18
(lp266
g20
(g13
S'w\xae\x01a\x8b\x9d\x8e?'
p267
tp268
Rp269
ag20
(g13
S'j\xf8i\x80U\xe6\xbd?'
p270
tp271
Rp272
asg27
I40
sg28
(F0.012899999999999998
F0.1418
g20
(g13
S'\nwW4\xacf\xe4@'
p273
tp274
Rp275
tp276
sg33
g20
(g13
S'A\x8e\x96\xe4\x0fd\xef?'
p277
tp278
Rp279
sg37
(lp280
(F0.0139
F0.1368
tp281
a(F0.016900000000000002
F0.1318
tp282
a(F0.012899999999999998
F0.1468
tp283
a(F0.0139
F0.15180000000000002
tp284
a(F0.012899999999999998
F0.1268
tp285
a(F0.012899999999999998
F0.15180000000000002
tp286
a(F0.0159
F0.12179999999999999
tp287
a(F0.0149
F0.1418
tp288
a(F0.012899999999999998
F0.1318
tp289
a(F0.011899999999999997
F0.1418
tp290
a(F0.0139
F0.1318
tp291
a(F0.0149
F0.1368
tp292
a(F0.0159
F0.1218
tp293
a(F0.0159
F0.1168
tp294
a(F0.011899999999999997
F0.15180000000000002
tp295
a(F0.0159
F0.1118
tp296
a(F0.0159
F0.1318
tp297
a(F0.016900000000000002
F0.1168
tp298
a(F0.011899999999999997
F0.1368
tp299
a(F0.0149
F0.1218
tp300
a(F0.0139
F0.12179999999999999
tp301
a(F0.0159
F0.1268
tp302
a(F0.0139
F0.1268
tp303
a(F0.0139
F0.1218
tp304
a(F0.0159
F0.1368
tp305
a(F0.0139
F0.1468
tp306
a(F0.0149
F0.12179999999999999
tp307
a(F0.0139
F0.1168
tp308
a(F0.0139
F0.1118
tp309
a(F0.0139
F0.1418
tp310
a(F0.0149
F0.1118
tp311
a(F0.0149
F0.1318
tp312
a(F0.016900000000000002
F0.1268
tp313
a(F0.012899999999999998
F0.1368
tp314
a(F0.016900000000000002
F0.12179999999999999
tp315
a(F0.0149
F0.1268
tp316
a(F0.0149
F0.1168
tp317
a(F0.012899999999999998
F0.1418
tp318
a(F0.011899999999999997
F0.1468
tp319
a(F0.016900000000000002
F0.1218
tp320
assI5
(dp321
g2
g3
(g4
(I0
tp322
g6
tp323
Rp324
(I1
(L8L
tp325
g13
I00
S"\xaf\x0e\xbajqB\x8b@\xda`\x94^\xb3\xa5\x9a@\x8f\xb33\xae5\x16\xa7@-7\xe7\x92\xc9\x80\xb1@'\xd6G\xa0V\xbc\xb6@\x85-\xc9\x95\\\x85\xb8@<vN\xf2\x98\xa9\xb6@\xc6\xacz=\x11Q\xb2@"
p326
tp327
bsg18
(lp328
g20
(g13
S"]\t\xb5\n\xa8'\x92?"
p329
tp330
Rp331
ag20
(g13
S'\xf6\xdb&\xa0\xfa\x08\xbf?'
p332
tp333
Rp334
asg27
I35
sg28
(F0.013699999999999997
F0.13620000000000002
g20
(g13
S"S\x13\xbd'!\xcc\xe4@"
p335
tp336
Rp337
tp338
sg33
g20
(g13
S'c\x93\x92\x1e\x92L\xef?'
p339
tp340
Rp341
sg37
(lp342
(F0.0167
F0.1262
tp343
a(F0.014699999999999998
F0.14120000000000002
tp344
a(F0.013699999999999997
F0.13620000000000002
tp345
a(F0.011699999999999995
F0.14620000000000002
tp346
a(F0.0187
F0.1162
tp347
a(F0.0177
F0.1262
tp348
a(F0.012699999999999996
F0.13620000000000002
tp349
a(F0.013699999999999997
F0.1262
tp350
a(F0.0167
F0.13620000000000002
tp351
a(F0.0157
F0.1312
tp352
a(F0.0167
F0.1212
tp353
a(F0.013699999999999997
F0.14120000000000002
tp354
a(F0.014699999999999998
F0.13620000000000002
tp355
a(F0.012699999999999996
F0.1312
tp356
a(F0.013699999999999997
F0.14620000000000002
tp357
a(F0.0177
F0.1312
tp358
a(F0.0157
F0.1262
tp359
a(F0.012699999999999996
F0.1262
tp360
a(F0.011699999999999995
F0.14120000000000002
tp361
a(F0.013699999999999997
F0.1312
tp362
a(F0.0167
F0.1162
tp363
a(F0.0157
F0.1212
tp364
a(F0.0177
F0.1212
tp365
a(F0.0177
F0.1162
tp366
a(F0.0187
F0.1212
tp367
a(F0.0167
F0.1312
tp368
a(F0.014699999999999998
F0.1312
tp369
a(F0.0187
F0.1262
tp370
a(F0.0157
F0.13620000000000002
tp371
a(F0.012699999999999996
F0.14620000000000002
tp372
a(F0.011699999999999995
F0.13620000000000002
tp373
a(F0.014699999999999998
F0.1262
tp374
a(F0.014699999999999998
F0.1212
tp375
a(F0.012699999999999996
F0.14120000000000002
tp376
a(F0.0187
F0.1312
tp377
assI6
(dp378
g2
g3
(g4
(I0
tp379
g6
tp380
Rp381
(I1
(L8L
tp382
g13
I00
S'\xb1\x81zo\xff\x8e\x88@\xc9\xf4\\,\x1e\xf6\x98@TPY\x88\x8c\xf1\xa5@\x11\n\x8a\xb4\x88\x90\xb1@\xe6\x84\xba\xd9\xad\xcc\xb6@\x1cOC\xb5\xf5\xf1\xb8@?\xd0\xed\xc7\xfe\xd4\xb6@\xd5"\x86\xe8\xcf\xfb\xb1@'
p383
tp384
bsg18
(lp385
g20
(g13
S'\xcb\x82\xe6\x9dV\xcd\x91?'
p386
tp387
Rp388
ag20
(g13
S'(>\xfc]\x19b\xbe?'
p389
tp390
Rp391
asg27
I50
sg28
(F0.012399999999999998
F0.14370000000000002
g20
(g13
S'Y\xf3:\x8b\x95M\xe4@'
p392
tp393
Rp394
tp395
sg33
g20
(g13
S'j\x10G\xb3\xba`\xef?'
p396
tp397
Rp398
sg37
(lp399
(F0.015399999999999997
F0.1337
tp400
a(F0.0184
F0.1137
tp401
a(F0.0144
F0.13870000000000002
tp402
a(F0.0144
F0.1237
tp403
a(F0.013399999999999999
F0.1287
tp404
a(F0.0164
F0.1137
tp405
a(F0.012399999999999998
F0.14370000000000002
tp406
a(F0.017400000000000002
F0.1187
tp407
a(F0.0154
F0.1337
tp408
a(F0.0154
F0.1287
tp409
a(F0.011399999999999997
F0.14370000000000002
tp410
a(F0.0184
F0.1237
tp411
a(F0.011399999999999997
F0.13870000000000002
tp412
a(F0.012399999999999998
F0.1337
tp413
a(F0.0184
F0.1287
tp414
a(F0.013399999999999999
F0.14370000000000002
tp415
a(F0.0164
F0.1187
tp416
a(F0.016399999999999998
F0.1187
tp417
a(F0.0164
F0.1237
tp418
a(F0.011399999999999997
F0.15370000000000003
tp419
a(F0.0164
F0.1287
tp420
a(F0.0154
F0.1187
tp421
a(F0.0154
F0.1237
tp422
a(F0.017400000000000002
F0.1237
tp423
a(F0.012399999999999998
F0.14870000000000003
tp424
a(F0.015399999999999997
F0.1287
tp425
a(F0.0174
F0.1337
tp426
a(F0.0174
F0.1187
tp427
a(F0.013399999999999999
F0.14870000000000003
tp428
a(F0.016399999999999998
F0.1287
tp429
a(F0.012399999999999998
F0.13870000000000002
tp430
a(F0.016399999999999998
F0.1337
tp431
a(F0.0144
F0.1337
tp432
a(F0.015399999999999997
F0.1237
tp433
a(F0.013399999999999999
F0.1337
tp434
a(F0.0164
F0.1337
tp435
a(F0.012399999999999998
F0.15370000000000003
tp436
a(F0.0144
F0.14370000000000002
tp437
a(F0.017400000000000002
F0.1287
tp438
a(F0.0174
F0.1237
tp439
a(F0.011399999999999997
F0.14870000000000003
tp440
a(F0.0174
F0.1137
tp441
a(F0.016399999999999998
F0.1237
tp442
a(F0.013399999999999999
F0.15370000000000003
tp443
a(F0.0144
F0.1287
tp444
a(F0.0184
F0.1187
tp445
a(F0.0174
F0.1287
tp446
a(F0.0144
F0.14870000000000003
tp447
a(F0.013399999999999999
F0.13870000000000002
tp448
a(F0.0154
F0.13870000000000002
tp449
assI7
(dp450
g2
g3
(g4
(I0
tp451
g6
tp452
Rp453
(I1
(L8L
tp454
g13
I00
S']G7>F\x04\x8c@\x1a\x8cn\xde\xc0s\x9b@\xbf\xe0\x1bd_O\xa7@\x8bxMRi\x0f\xb2@M\xa7\x03\xce\xc4\xb4\xb6@\xf1\xbd\x04\xda\x16\xa4\xb8@8;\x9a\xa4\x83\x81\xb6@$\x19\xb8\xc2g\xb3\xb1@'
p455
tp456
bsg18
(lp457
g20
(g13
S'\xfeb\xc0\xb0\x12?\x90?'
p458
tp459
Rp460
ag20
(g13
S'\xa8\x7f\x97sn\x8d\xbe?'
p461
tp462
Rp463
asg27
I39
sg28
(F0.0139
F0.1393
g20
(g13
S'\xe6\xe1\x0fT}\x83\xe4@'
p464
tp465
Rp466
tp467
sg33
g20
(g13
S'\xc5\xf7\x08\x88\x1a_\xef?'
p468
tp469
Rp470
sg37
(lp471
(F0.0169
F0.1193
tp472
a(F0.0139
F0.1293
tp473
a(F0.0149
F0.11929999999999999
tp474
a(F0.0169
F0.1143
tp475
a(F0.0179
F0.1243
tp476
a(F0.0149
F0.1243
tp477
a(F0.0139
F0.1443
tp478
a(F0.0139
F0.1243
tp479
a(F0.0159
F0.1393
tp480
a(F0.0149
F0.1343
tp481
a(F0.015899999999999997
F0.11929999999999999
tp482
a(F0.0159
F0.1193
tp483
a(F0.015899999999999997
F0.1243
tp484
a(F0.0159
F0.1143
tp485
a(F0.0149
F0.1293
tp486
a(F0.0159
F0.1243
tp487
a(F0.015899999999999997
F0.1293
tp488
a(F0.0149
F0.1393
tp489
a(F0.0139
F0.1393
tp490
a(F0.0149
F0.1193
tp491
a(F0.016900000000000002
F0.11929999999999999
tp492
a(F0.0159
F0.1293
tp493
a(F0.016900000000000002
F0.1243
tp494
a(F0.0169
F0.11929999999999999
tp495
a(F0.0149
F0.1143
tp496
a(F0.0169
F0.1243
tp497
a(F0.0179
F0.11929999999999999
tp498
a(F0.012899999999999998
F0.1293
tp499
a(F0.016900000000000002
F0.1343
tp500
a(F0.0139
F0.1343
tp501
a(F0.0179
F0.1293
tp502
a(F0.012899999999999998
F0.1393
tp503
a(F0.012899999999999998
F0.1343
tp504
a(F0.0149
F0.1443
tp505
a(F0.0169
F0.1293
tp506
a(F0.0159
F0.11929999999999999
tp507
a(F0.012899999999999998
F0.1443
tp508
a(F0.016900000000000002
F0.1293
tp509
a(F0.0159
F0.1343
tp510
assI8
(dp511
g2
g3
(g4
(I0
tp512
g6
tp513
Rp514
(I1
(L8L
tp515
g13
I00
S'\xe2\xcdq\xeb\xac\x16\x8b@zF\x88\xf5\xd5\n\x9b@\xac-\xdd\x8e\xbag\xa7@\xf2\x9c\x1a8C\xef\xb1@\xfe\x10\x06\x9e\x97t\xb6@\x16/\\ \xa7\x7f\xb8@\xad\x1e*\xc5\xc4\x91\xb6@Zv\xec)\x05K\xb2@'
p516
tp517
bsg18
(lp518
g20
(g13
S'\xcc\x9eD\xc1\xfc \x90?'
p519
tp520
Rp521
ag20
(g13
S'v=\x00\n*5\xbe?'
p522
tp523
Rp524
asg27
I47
sg28
(F0.0138
F0.138
g20
(g13
S'\x9b!\x87h\x93\xa5\xe4@'
p525
tp526
Rp527
tp528
sg33
g20
(g13
S'\x87N\xef\xc1\x8cc\xef?'
p529
tp530
Rp531
sg37
(lp532
(F0.0138
F0.133
tp533
a(F0.0168
F0.113
tp534
a(F0.0168
F0.133
tp535
a(F0.012799999999999999
F0.14300000000000002
tp536
a(F0.0178
F0.128
tp537
a(F0.016800000000000002
F0.128
tp538
a(F0.015799999999999998
F0.118
tp539
a(F0.0138
F0.128
tp540
a(F0.0148
F0.113
tp541
a(F0.015799999999999998
F0.138
tp542
a(F0.0148
F0.14300000000000002
tp543
a(F0.0148
F0.138
tp544
a(F0.016800000000000002
F0.133
tp545
a(F0.0178
F0.118
tp546
a(F0.011799999999999998
F0.133
tp547
a(F0.0158
F0.138
tp548
a(F0.0168
F0.138
tp549
a(F0.012799999999999999
F0.128
tp550
a(F0.0148
F0.133
tp551
a(F0.0138
F0.118
tp552
a(F0.0178
F0.123
tp553
a(F0.011799999999999998
F0.138
tp554
a(F0.011799999999999998
F0.14300000000000002
tp555
a(F0.0148
F0.128
tp556
a(F0.0148
F0.118
tp557
a(F0.0148
F0.123
tp558
a(F0.0158
F0.133
tp559
a(F0.0158
F0.113
tp560
a(F0.015799999999999998
F0.128
tp561
a(F0.014799999999999997
F0.133
tp562
a(F0.014799999999999997
F0.138
tp563
a(F0.0158
F0.128
tp564
a(F0.0138
F0.14300000000000002
tp565
a(F0.0168
F0.123
tp566
a(F0.015799999999999998
F0.133
tp567
a(F0.015799999999999998
F0.123
tp568
a(F0.0158
F0.123
tp569
a(F0.0168
F0.118
tp570
a(F0.014799999999999997
F0.128
tp571
a(F0.016800000000000002
F0.123
tp572
a(F0.012799999999999999
F0.133
tp573
a(F0.014799999999999997
F0.123
tp574
a(F0.0138
F0.138
tp575
a(F0.0158
F0.118
tp576
a(F0.0168
F0.128
tp577
a(F0.0138
F0.123
tp578
a(F0.012799999999999999
F0.138
tp579
assI9
(dp580
g2
g3
(g4
(I0
tp581
g6
tp582
Rp583
(I1
(L8L
tp584
g13
I00
S'\xea\xabc#\x17\x16\x8b@\xea\x89\x91;\x9bX\x9a@\xc6\x12,\xc5\xd7\xb2\xa6@a\xb9\xe2\x8b\xd8\xd0\xb1@\xd0\xec2\xae\x10\xa0\xb6@nX\xc9&\xd0p\xb8@v\x85R\xe0\x08\xc9\xb6@\\\xc6!k\x02S\xb2@'
p585
tp586
bsg18
(lp587
g20
(g13
S'\xde\xf2E\x98\xb99\x91?'
p588
tp589
Rp590
ag20
(g13
S'\x15\xa9:\xaa;\xec\xbe?'
p591
tp592
Rp593
asg27
I30
sg28
(F0.0138
F0.1358
g20
(g13
S':\xc4|~\x92\xd6\xe4@'
p594
tp595
Rp596
tp597
sg33
g20
(g13
S'Zh\x81\xefKu\xef?'
p598
tp599
Rp600
sg37
(lp601
(F0.0158
F0.1308
tp602
a(F0.0158
F0.1258
tp603
a(F0.0158
F0.1158
tp604
a(F0.016800000000000002
F0.12079999999999999
tp605
a(F0.0138
F0.1408
tp606
a(F0.0148
F0.1258
tp607
a(F0.012799999999999999
F0.1308
tp608
a(F0.0178
F0.1158
tp609
a(F0.0138
F0.1358
tp610
a(F0.0188
F0.1158
tp611
a(F0.012799999999999999
F0.1358
tp612
a(F0.0168
F0.1158
tp613
a(F0.0178
F0.1208
tp614
a(F0.0138
F0.1308
tp615
a(F0.016800000000000002
F0.1308
tp616
a(F0.0158
F0.1208
tp617
a(F0.0148
F0.12079999999999999
tp618
a(F0.012799999999999999
F0.1408
tp619
a(F0.0178
F0.1258
tp620
a(F0.0158
F0.12079999999999999
tp621
a(F0.016800000000000002
F0.1258
tp622
a(F0.0138
F0.1258
tp623
a(F0.0168
F0.1208
tp624
a(F0.0148
F0.1408
tp625
a(F0.0148
F0.1358
tp626
a(F0.0188
F0.1208
tp627
a(F0.0158
F0.1358
tp628
a(F0.0168
F0.1258
tp629
a(F0.0148
F0.1308
tp630
a(F0.0188
F0.1258
tp631
ass.