(dp0
I0
(dp1
S'best_curve'
p2
cnumpy.core.multiarray
_reconstruct
p3
(cnumpy
ndarray
p4
(I0
tp5
S'b'
p6
tp7
Rp8
(I1
(L13L
tp9
cnumpy
dtype
p10
(S'f8'
p11
I0
I1
tp12
Rp13
(I3
S'<'
p14
NNNI-1
I-1
I0
tp15
bI00
S'\xcb\x12\x85,_\xd8n@\x06\xee\xadM\xab\xf1v@K\xd6\x85r\x90\xb2~@\xbc{\xd9\x16\x00\x98\x85@\x0e\x12\x89\xc23\x89\x8a@\x12\xba\x11\xffp\x05\x90@\x86:6\x1a,\x92\x93@\x1a;\xe5\xb7\x0c\x17\x95@\xf8\x1a\xea\xe2]\xea\x95@\xf8\x93\xe8V\xfb5\x96@\x9c\xba\\\x80Q\xf7\x94@_\xbeSp\xe0*\x93@I\xd31\xae\xe2\xe2\x90@'
p16
tp17
bsS'pq0'
p18
(lp19
cnumpy.core.multiarray
scalar
p20
(g13
S'\xa42\xe1aH\x91\x88?'
p21
tp22
Rp23
ag20
(g13
S'\xb1:85\xf4\xf9\xaf?'
p24
tp25
Rp26
asS'steps'
p27
I30
sS'params'
p28
(F0.012
F0.07250000000000001
g20
(g13
S'"WO\x04\x97{\xd0@'
p29
tp30
Rp31
tp32
sS'fitness'
p33
g20
(g13
S'\x8d\\=Fc\xbc\xed?'
p34
tp35
Rp36
sS'path'
p37
(lp38
(F0.012
F0.0675
tp39
a(F0.011
F0.07250000000000001
tp40
a(F0.013999999999999999
F0.07250000000000001
tp41
a(F0.009999999999999998
F0.07750000000000001
tp42
a(F0.011
F0.0625
tp43
a(F0.013
F0.0675
tp44
a(F0.011
F0.08250000000000002
tp45
a(F0.011
F0.0675
tp46
a(F0.013
F0.07250000000000001
tp47
a(F0.013
F0.0625
tp48
a(F0.009999999999999998
F0.0625
tp49
a(F0.011
F0.07750000000000001
tp50
a(F0.013000000000000001
F0.07250000000000001
tp51
a(F0.012
F0.07750000000000001
tp52
a(F0.009999999999999998
F0.0675
tp53
a(F0.009999999999999998
F0.08250000000000002
tp54
a(F0.008999999999999998
F0.07750000000000001
tp55
a(F0.012
F0.0575
tp56
a(F0.012
F0.0625
tp57
a(F0.011
F0.0575
tp58
a(F0.008999999999999998
F0.0675
tp59
a(F0.008999999999999998
F0.08250000000000002
tp60
a(F0.013999999999999999
F0.0625
tp61
a(F0.013000000000000001
F0.07750000000000001
tp62
a(F0.009999999999999998
F0.07250000000000001
tp63
a(F0.013
F0.0575
tp64
a(F0.013999999999999999
F0.0675
tp65
a(F0.008999999999999998
F0.07250000000000001
tp66
a(F0.013000000000000001
F0.0675
tp67
a(F0.012
F0.07250000000000001
tp68
assI1
(dp69
g2
g3
(g4
(I0
tp70
g6
tp71
Rp72
(I1
(L13L
tp73
g13
I00
S'\x84\x90\x18\x8dB\x12o@/\xfe\xda\xdc\x10!v@\xcc`\x96s_\xe3~@j\x18\x11\x19Y\xab\x84@\xf2\x98\xb8n!\x8e\x89@l\x87J\xda\xab\xc9\x8f@\xab6\x94\xc0.2\x93@\x19t\xd5\xd7p\xe0\x94@\x97\x1a\x03\xc3\xcd\xdc\x95@9\x06u\xb3+\x1a\x96@\t\x0b\xe9\x03V\x92\x95@\xdbe\xfc\xebS\xb9\x93@\x851\x89\x87\xa8S\x91@'
p74
tp75
bsg18
(lp76
g20
(g13
S'\xdb6\xa0\xf7aZ\x87?'
p77
tp78
Rp79
ag20
(g13
S'w:IG\x03\x8d\xaf?'
p80
tp81
Rp82
asg27
I30
sg28
(F0.0114
F0.07160000000000001
g20
(g13
S'F^\xf2\x11z\xd5\xd0@'
p83
tp84
Rp85
tp86
sg33
g20
(g13
S'3\x8b\xb3\x1e\xc2\xee\xed?'
p87
tp88
Rp89
sg37
(lp90
(F0.0114
F0.07160000000000001
tp91
a(F0.009399999999999999
F0.08160000000000002
tp92
a(F0.009399999999999999
F0.07160000000000001
tp93
a(F0.012400000000000001
F0.07160000000000001
tp94
a(F0.013399999999999999
F0.0666
tp95
a(F0.0124
F0.07160000000000001
tp96
a(F0.0104
F0.0566
tp97
a(F0.0124
F0.06160000000000001
tp98
a(F0.012400000000000001
F0.0666
tp99
a(F0.0114
F0.0616
tp100
a(F0.0114
F0.0566
tp101
a(F0.0104
F0.07160000000000001
tp102
a(F0.0114
F0.08160000000000002
tp103
a(F0.0124
F0.0566
tp104
a(F0.0114
F0.07660000000000002
tp105
a(F0.0114
F0.0666
tp106
a(F0.009399999999999999
F0.0666
tp107
a(F0.0104
F0.06160000000000001
tp108
a(F0.0104
F0.0666
tp109
a(F0.009399999999999999
F0.07660000000000002
tp110
a(F0.0124
F0.0616
tp111
a(F0.0104
F0.0616
tp112
a(F0.0104
F0.08160000000000002
tp113
a(F0.0124
F0.0666
tp114
a(F0.013399999999999999
F0.07160000000000001
tp115
a(F0.012400000000000001
F0.07660000000000002
tp116
a(F0.0114
F0.06160000000000001
tp117
a(F0.012400000000000001
F0.06160000000000001
tp118
a(F0.0104
F0.07660000000000002
tp119
a(F0.013399999999999999
F0.06160000000000001
tp120
assI2
(dp121
g2
g3
(g4
(I0
tp122
g6
tp123
Rp124
(I1
(L13L
tp125
g13
I00
S'\x0c\x96u\x11\xba\xe5k@\xc9\xd5mt%=t@\xaa\xacU}V?|@R{\xed\xc4\xb3\xd6\x82@\xbfGc\xd33\x86\x88@Z=\x1f\xe9H\x91\x8f@\x88\x9d\xe7\xcf\xd2\xa5\x92@%\x82\xa4\x8c\xcf\xbe\x94@\x99\xefIuH\x14\x96@k\x00\x9d\x91#\xb3\x96@"2\x96\xd7\x0e\xab\x95@\xa0#\xaa\x0c\xba\x00\x94@\xc0\xe7h5\xd2\xfe\x91@'
p126
tp127
bsg18
(lp128
g20
(g13
S'4)b\xbb\x03F\x87?'
p129
tp130
Rp131
ag20
(g13
S'\xa0m@\xffk\xb9\xae?'
p132
tp133
Rp134
asg27
I36
sg28
(F0.0104
F0.07500000000000001
g20
(g13
S'\xa4t\xcb1\xf2\x92\xd0@'
p135
tp136
Rp137
tp138
sg33
g20
(g13
S'\xfa\x85\x1d95\xc5\xed?'
p139
tp140
Rp141
sg37
(lp142
(F0.0114
F0.08000000000000002
tp143
a(F0.0104
F0.08000000000000002
tp144
a(F0.0104
F0.08500000000000002
tp145
a(F0.013399999999999999
F0.07
tp146
a(F0.0124
F0.055
tp147
a(F0.0104
F0.065
tp148
a(F0.008399999999999998
F0.08500000000000002
tp149
a(F0.008399999999999998
F0.08000000000000002
tp150
a(F0.009399999999999999
F0.08000000000000002
tp151
a(F0.0114
F0.065
tp152
a(F0.0124
F0.07500000000000001
tp153
a(F0.0114
F0.060000000000000005
tp154
a(F0.013399999999999999
F0.060000000000000005
tp155
a(F0.0104
F0.055
tp156
a(F0.009399999999999999
F0.07
tp157
a(F0.0124
F0.065
tp158
a(F0.012400000000000001
F0.065
tp159
a(F0.0104
F0.07500000000000001
tp160
a(F0.012400000000000001
F0.07500000000000001
tp161
a(F0.013399999999999999
F0.065
tp162
a(F0.0114
F0.055
tp163
a(F0.0114
F0.07500000000000001
tp164
a(F0.0124
F0.06
tp165
a(F0.009399999999999999
F0.08500000000000002
tp166
a(F0.0114
F0.07
tp167
a(F0.0104
F0.06
tp168
a(F0.013399999999999999
F0.07500000000000001
tp169
a(F0.0104
F0.07
tp170
a(F0.013399999999999999
F0.055
tp171
a(F0.008399999999999998
F0.07500000000000001
tp172
a(F0.009399999999999999
F0.07500000000000001
tp173
a(F0.0114
F0.06
tp174
a(F0.013399999999999999
F0.06
tp175
a(F0.0124
F0.07
tp176
a(F0.0124
F0.060000000000000005
tp177
a(F0.012400000000000001
F0.07
tp178
assI3
(dp179
g2
g3
(g4
(I0
tp180
g6
tp181
Rp182
(I1
(L13L
tp183
g13
I00
S"\xa2>\xd7f~5p@\xbd\x1e\xc8xC'v@\x94\x84\xa9\xb7,\xca}@\xb4\xbf\x85\xfc|,\x84@\x16+<\xee9k\x89@\x1f\x1f\xffl\xe4Q\x8e@\x86\x92\x05\x8a,\x0c\x92@\xb1\x9d\xce\\}\xa6\x94@\x1f`}e8\x8e\x95@U0\xf9\x19\x16?\x96@\xda\xf6n%@\xc7\x95@\xa2<\x03\x9c\x9b\x96\x94@\x08\x9b`\x90:\x8b\x92@"
p184
tp185
bsg18
(lp186
g20
(g13
S'rs\xafy\\[\x87?'
p187
tp188
Rp189
ag20
(g13
S'\x7fL*\xda"\xed\xaf?'
p190
tp191
Rp192
asg27
I24
sg28
(F0.0114
F0.0674
g20
(g13
S'\x17q\xc9~\xe3\x9f\xd1@'
p193
tp194
Rp195
tp196
sg33
g20
(g13
S'+xt\x8e,\xbb\xed?'
p197
tp198
Rp199
sg37
(lp200
(F0.0124
F0.0574
tp201
a(F0.0124
F0.0724
tp202
a(F0.0104
F0.062400000000000004
tp203
a(F0.0114
F0.07740000000000001
tp204
a(F0.0114
F0.0674
tp205
a(F0.0114
F0.0624
tp206
a(F0.0104
F0.0724
tp207
a(F0.0114
F0.0574
tp208
a(F0.0104
F0.0624
tp209
a(F0.0124
F0.0674
tp210
a(F0.012400000000000001
F0.0724
tp211
a(F0.012400000000000001
F0.0674
tp212
a(F0.0104
F0.0674
tp213
a(F0.0124
F0.062400000000000004
tp214
a(F0.013399999999999999
F0.062400000000000004
tp215
a(F0.013399999999999999
F0.0674
tp216
a(F0.0114
F0.0724
tp217
a(F0.0104
F0.07740000000000001
tp218
a(F0.013399999999999999
F0.0724
tp219
a(F0.0104
F0.0574
tp220
a(F0.0124
F0.0624
tp221
a(F0.012400000000000001
F0.07740000000000001
tp222
a(F0.0114
F0.062400000000000004
tp223
a(F0.012400000000000001
F0.062400000000000004
tp224
assI4
(dp225
g2
g3
(g4
(I0
tp226
g6
tp227
Rp228
(I1
(L13L
tp229
g13
I00
S"\xf7\x95\x0b\xfd:wk@_\xa9\x15\xf6\x03qu@\x8f1\n\\\x96\xdf}@\xc5\xe1\xff\xae\xac'\x84@>z\x025\xa6*\x89@j\x9d\xf0\xa9\xf0'\x90@\xf8\xab\xe7*\x80E\x93@\xf4\xaf\x9e\x99\x86\x08\x95@\x01\xdcs\x91\xa8k\x96@\x96\xfac`,U\x96@>\xd7}\xacIO\x95@R\x13L\xf2_~\x93@\x82V\xcd\x7f\xde\xd5\x90@"
p230
tp231
bsg18
(lp232
g20
(g13
S'\xebgG\xc6\xd2\x88\x86?'
p233
tp234
Rp235
ag20
(g13
S'\x84\x1a\xc0rZF\xaf?'
p236
tp237
Rp238
asg27
I28
sg28
(F0.011
F0.07610000000000001
g20
(g13
S'0\xce\xfdvK%\xd0@'
p239
tp240
Rp241
tp242
sg33
g20
(g13
S'\x17\x13C-x\xc2\xed?'
p243
tp244
Rp245
sg37
(lp246
(F0.009999999999999998
F0.07610000000000001
tp247
a(F0.011
F0.0611
tp248
a(F0.012
F0.08110000000000002
tp249
a(F0.011
F0.056100000000000004
tp250
a(F0.011
F0.08110000000000002
tp251
a(F0.013000000000000001
F0.07110000000000001
tp252
a(F0.012
F0.0661
tp253
a(F0.01
F0.0611
tp254
a(F0.012
F0.056100000000000004
tp255
a(F0.013000000000000001
F0.07610000000000001
tp256
a(F0.011
F0.0561
tp257
a(F0.009999999999999998
F0.08110000000000002
tp258
a(F0.013000000000000001
F0.0661
tp259
a(F0.012
F0.0611
tp260
a(F0.011
F0.06110000000000001
tp261
a(F0.013000000000000001
F0.06110000000000001
tp262
a(F0.01
F0.0661
tp263
a(F0.01
F0.0561
tp264
a(F0.012
F0.07610000000000001
tp265
a(F0.009999999999999998
F0.07110000000000001
tp266
a(F0.011
F0.07610000000000001
tp267
a(F0.013000000000000001
F0.0611
tp268
a(F0.012
F0.06110000000000001
tp269
a(F0.011
F0.0661
tp270
a(F0.012
F0.0561
tp271
a(F0.013000000000000001
F0.056100000000000004
tp272
a(F0.012
F0.07110000000000001
tp273
a(F0.011
F0.07110000000000001
tp274
assI5
(dp275
g2
g3
(g4
(I0
tp276
g6
tp277
Rp278
(I1
(L13L
tp279
g13
I00
S'9\xa9\rcA\x90q@\xdb\xfa\xbc2\x8a\xb7x@\x8a\x1aswXj\x80@hN\x8e\xa4\x0cJ\x85@\x04.\xfc\xefr\x1e\x8a@\xe5\xf9\xd41\x13\x01\x90@u\xb2%\x95d\xef\x92@\xcd1\xa6Pc\xb6\x94@\x0co,\xeaQ\xb3\x95@_\x18EDs\xc1\x95@\x08\xd1w\xce~.\x95@\xf9\xf6Y{\x05\xa0\x93@\\\xa2\xbe\xe1Q\xd8\x91@'
p280
tp281
bsg18
(lp282
g20
(g13
S'\x8c\xe1\x8d\x10q\xd1\x87?'
p283
tp284
Rp285
ag20
(g13
S"\xd9\xf2'\xc5A\xe8\xaf?"
p286
tp287
Rp288
asg27
I22
sg28
(F0.0126
F0.0673
g20
(g13
S'\xe4\xb0\x1a{\xb6?\xd1@'
p289
tp290
Rp291
tp292
sg33
g20
(g13
S'\xa7f\xdbc\xd8\xb3\xed?'
p293
tp294
Rp295
sg37
(lp296
(F0.010599999999999998
F0.0723
tp297
a(F0.010599999999999998
F0.07730000000000001
tp298
a(F0.0126
F0.0673
tp299
a(F0.0116
F0.07730000000000001
tp300
a(F0.0116
F0.0673
tp301
a(F0.009599999999999997
F0.0673
tp302
a(F0.0126
F0.0623
tp303
a(F0.009599999999999997
F0.07730000000000001
tp304
a(F0.010599999999999998
F0.0623
tp305
a(F0.0106
F0.0623
tp306
a(F0.0106
F0.0573
tp307
a(F0.010599999999999998
F0.0673
tp308
a(F0.0106
F0.0673
tp309
a(F0.013600000000000001
F0.0623
tp310
a(F0.013600000000000001
F0.0673
tp311
a(F0.0116
F0.0623
tp312
a(F0.0116
F0.0723
tp313
a(F0.0126
F0.0723
tp314
a(F0.013600000000000001
F0.0723
tp315
a(F0.0116
F0.0573
tp316
a(F0.009599999999999997
F0.0723
tp317
a(F0.0126
F0.0573
tp318
assI6
(dp319
g2
g3
(g4
(I0
tp320
g6
tp321
Rp322
(I1
(L13L
tp323
g13
I00
S'\xfb\xcfUE\xdd\xe1m@\xd1+\xfb\x1bj\x9eu@\x81y\xe6yX\xa2}@L\xe2\x10}\x14Y\x83@jn^\xce<\x9c\x89@\xd8\x8f\xcc \\C\x8f@\xc0\xd1\x0b\xe1\xed\x92\x92@\x89\xcc\xab%\xb2\xaa\x94@m\x92 A\xdd\xbe\x95@\xf83o\xcf\x95\x95\x96@\x8b0!m\x07\xd7\x95@|\x15\x15uf\xfd\x93@\x13E\x99\xfd\xc0\xd5\x91@'
p324
tp325
bsg18
(lp326
g20
(g13
S'\x14\x1ew\xe3\xefO\x86?'
p327
tp328
Rp329
ag20
(g13
S'\x85\xc6wH\x17\xe3\xaf?'
p330
tp331
Rp332
asg27
I20
sg28
(F0.0109
F0.0723
g20
(g13
S'\x0c\x94\x00\x8d!\xdb\xd0@'
p333
tp334
Rp335
tp336
sg33
g20
(g13
S'k\x87\x92wO\xbe\xed?'
p337
tp338
Rp339
sg37
(lp340
(F0.0119
F0.07730000000000001
tp341
a(F0.009899999999999999
F0.0623
tp342
a(F0.0109
F0.0573
tp343
a(F0.012900000000000002
F0.0673
tp344
a(F0.009899999999999999
F0.07730000000000001
tp345
a(F0.009899999999999999
F0.0673
tp346
a(F0.0109
F0.0723
tp347
a(F0.012900000000000002
F0.0623
tp348
a(F0.012900000000000002
F0.0723
tp349
a(F0.0099
F0.0673
tp350
a(F0.009899999999999999
F0.0723
tp351
a(F0.0119
F0.0723
tp352
a(F0.0119
F0.0623
tp353
a(F0.0109
F0.07730000000000001
tp354
a(F0.0109
F0.0623
tp355
a(F0.0119
F0.0573
tp356
a(F0.0099
F0.0573
tp357
a(F0.0099
F0.0623
tp358
a(F0.0119
F0.0673
tp359
a(F0.0109
F0.0673
tp360
assI7
(dp361
g2
g3
(g4
(I0
tp362
g6
tp363
Rp364
(I1
(L13L
tp365
g13
I00
S'V\x1f\xc6\x1dXki@W*\x94t\xd0Ws@\xda\xc8\x95rN\x93{@\xe1\xf1\x1aLF\x8f\x83@L\xff\x11hO\xa1\x88@\xa6\xae\xc2\x8c]\xc3\x8e@\x05/&\xd4\x80\xcc\x92@\x01\xe1\x92. \xf5\x94@\xaa\xe7H\xca\xc3p\x96@\xccEA\xaf\xea\xc7\x96@\xc3\xb5\xfaX\x1b\t\x96@\xf3\xb0\x04\x1e\x13\xc6\x93@\x00\xbe\xa8\x9e\xaa \x91@'
p366
tp367
bsg18
(lp368
g20
(g13
S'H\xcc{2(\xf2\x86?'
p369
tp370
Rp371
ag20
(g13
S'\xe6\x95=\xd5[\x1f\xb0?'
p372
tp373
Rp374
asg27
I26
sg28
(F0.0102
F0.07800000000000001
g20
(g13
S'\xf3\xcd\xd0\x0b\x83\x1e\xd0@'
p375
tp376
Rp377
tp378
sg33
g20
(g13
S'#\xe3\x19\xdf\xb5\xc2\xed?'
p379
tp380
Rp381
sg37
(lp382
(F0.011200000000000002
F0.068
tp383
a(F0.0102
F0.063
tp384
a(F0.0122
F0.063
tp385
a(F0.011200000000000002
F0.07800000000000001
tp386
a(F0.011200000000000002
F0.07300000000000001
tp387
a(F0.0132
F0.07300000000000001
tp388
a(F0.011200000000000002
F0.063
tp389
a(F0.0122
F0.068
tp390
a(F0.0132
F0.063
tp391
a(F0.0092
F0.068
tp392
a(F0.0102
F0.07800000000000001
tp393
a(F0.0122
F0.058
tp394
a(F0.0102
F0.07300000000000001
tp395
a(F0.0102
F0.058
tp396
a(F0.0092
F0.07800000000000001
tp397
a(F0.0112
F0.068
tp398
a(F0.0112
F0.058
tp399
a(F0.0092
F0.07300000000000001
tp400
a(F0.0092
F0.063
tp401
a(F0.0102
F0.08300000000000002
tp402
a(F0.0132
F0.068
tp403
a(F0.0092
F0.08300000000000002
tp404
a(F0.011200000000000002
F0.08300000000000002
tp405
a(F0.0122
F0.07300000000000001
tp406
a(F0.0112
F0.063
tp407
a(F0.0102
F0.068
tp408
assI8
(dp409
g2
g3
(g4
(I0
tp410
g6
tp411
Rp412
(I1
(L13L
tp413
g13
I00
S'\xa5\x96\xb3\x1b\x9b\x15m@\xc3\x8dUQ\x02\xa2u@\x08eFc\xc7\xad}@\xad9|\xd6\xde\xed\x83@\xaa\xb6:\xad@\xa9\x89@\xf8\x8aa&(9\x8f@t\x170\xed=\xc0\x92@\xfc\x01F\xca"y\x94@\xdb\xc0\'\xd6\xc4G\x96@\x92%g\x13[U\x96@\xea\x99\xe7\xf8\xd2\xbb\x95@\xcf\xc8\xaa\xf1w\xc6\x93@\xe8\x9d{a\x17\xbe\x91@'
p414
tp415
bsg18
(lp416
g20
(g13
S'\xff\xfa\xa6\xb4*o\x88?'
p417
tp418
Rp419
ag20
(g13
S'\xed{\x8f\xbd\xc7Y\xb0?'
p420
tp421
Rp422
asg27
I20
sg28
(F0.0109
F0.07390000000000001
g20
(g13
S'\xc4p\xe2\xc3\xe5\x95\xd0@'
p423
tp424
Rp425
tp426
sg33
g20
(g13
S'I\xe0E\xc1\x0b\xba\xed?'
p427
tp428
Rp429
sg37
(lp430
(F0.0119
F0.0589
tp431
a(F0.012900000000000002
F0.07390000000000001
tp432
a(F0.009899999999999999
F0.0689
tp433
a(F0.0119
F0.0689
tp434
a(F0.009899999999999999
F0.07390000000000001
tp435
a(F0.0109
F0.07890000000000001
tp436
a(F0.0109
F0.0639
tp437
a(F0.0129
F0.0639
tp438
a(F0.012900000000000002
F0.0639
tp439
a(F0.0119
F0.0639
tp440
a(F0.009899999999999999
F0.07890000000000001
tp441
a(F0.0119
F0.07890000000000001
tp442
a(F0.0109
F0.0689
tp443
a(F0.0129
F0.0589
tp444
a(F0.0129
F0.0689
tp445
a(F0.012900000000000002
F0.0689
tp446
a(F0.0109
F0.0589
tp447
a(F0.0119
F0.07390000000000001
tp448
a(F0.009899999999999999
F0.0639
tp449
a(F0.0109
F0.07390000000000001
tp450
assI9
(dp451
g2
g3
(g4
(I0
tp452
g6
tp453
Rp454
(I1
(L13L
tp455
g13
I00
S'\xd8\x8b\xb6\xae\x16$k@\x17^-h\xcd\xa7t@x\tc#--|@\xab7f\x13\x92\xc8\x83@\xd7\x86W606\x89@4\xd3p\xa9\x05e\x8e@\xf28v\xba\xec\xe7\x91@\x87\xc2\xaf\x86\xda{\x94@\x9a:\x1atd\x07\x96@i\xcc\x91\xc6\x9dW\x96@H\x95\x96\x03\xb8\xff\x95@6\xca\n\xfe\x7f\xa8\x94@\xa2|O\xbcTZ\x92@'
p456
tp457
bsg18
(lp458
g20
(g13
S'\xe4Wx+\xa1\x8d\x85?'
p459
tp460
Rp461
ag20
(g13
S'\xce*X/\xb1\xd2\xaf?'
p462
tp463
Rp464
asg27
I37
sg28
(F0.010499999999999999
F0.0722
g20
(g13
S'g\xa6\xd1\xcf\xfe\x07\xd1@'
p465
tp466
Rp467
tp468
sg33
g20
(g13
S')6\xa6\xd1@\xa5\xed?'
p469
tp470
Rp471
sg37
(lp472
(F0.0125
F0.0672
tp473
a(F0.013500000000000002
F0.0772
tp474
a(F0.010499999999999999
F0.0772
tp475
a(F0.0095
F0.0672
tp476
a(F0.009499999999999998
F0.08720000000000001
tp477
a(F0.010499999999999999
F0.0672
tp478
a(F0.009499999999999998
F0.08220000000000001
tp479
a(F0.0125
F0.0772
tp480
a(F0.013500000000000002
F0.0672
tp481
a(F0.008499999999999997
F0.08220000000000001
tp482
a(F0.0125
F0.0622
tp483
a(F0.009499999999999998
F0.0722
tp484
a(F0.0115
F0.0572
tp485
a(F0.0115
F0.0672
tp486
a(F0.009500000000000001
F0.0672
tp487
a(F0.0125
F0.0722
tp488
a(F0.0105
F0.0572
tp489
a(F0.0095
F0.0622
tp490
a(F0.009499999999999998
F0.0772
tp491
a(F0.009500000000000001
F0.0622
tp492
a(F0.010499999999999999
F0.08720000000000001
tp493
a(F0.010499999999999999
F0.0722
tp494
a(F0.010499999999999999
F0.0622
tp495
a(F0.0105
F0.0722
tp496
a(F0.009500000000000001
F0.0722
tp497
a(F0.0105
F0.0622
tp498
a(F0.0115
F0.0772
tp499
a(F0.013500000000000002
F0.0722
tp500
a(F0.008499999999999997
F0.0722
tp501
a(F0.008499999999999997
F0.0772
tp502
a(F0.009499999999999998
F0.0672
tp503
a(F0.0095
F0.0572
tp504
a(F0.008499999999999997
F0.08720000000000001
tp505
a(F0.0115
F0.0722
tp506
a(F0.0105
F0.0672
tp507
a(F0.010499999999999999
F0.08220000000000001
tp508
a(F0.0115
F0.0622
tp509
ass.