(dp0
I0
(dp1
S'best_curve'
p2
cnumpy.core.multiarray
_reconstruct
p3
(cnumpy
ndarray
p4
(I0
tp5
S'b'
p6
tp7
Rp8
(I1
(L13L
tp9
cnumpy
dtype
p10
(S'f8'
p11
I0
I1
tp12
Rp13
(I3
S'<'
p14
NNNI-1
I-1
I0
tp15
bI00
S'U\xef\xa2\xa5`}l@\xcf>G\xc3\x04:t@\xbdaR\x1a\xb2m}@p\t\xa0*E\x91\x82@\xfcM\x89*)\xa0\x88@\xafeGJ\x9ac\x8e@p\\P4si\x92@8\x16Z?8\x9d\x94@R5\x10~\x9d\xfc\x95@\x08\xa8\x08\x1f\xad\xa5\x96@2:\xe02\xc0\x1c\x96@\x91\x9b\x976xR\x94@w\x87\xa5\x12Q\x16\x92@'
p16
tp17
bsS'pq0'
p18
(lp19
cnumpy.core.multiarray
scalar
p20
(g13
S'<\x00l\x02p\x17\x86?'
p21
tp22
Rp23
ag20
(g13
S'Z\xfeGs\x0f\xb1\xae?'
p24
tp25
Rp26
asS'steps'
p27
I28
sS'params'
p28
(F0.0108
F0.0699
g20
(g13
S'\x7fj\x0e\x02?\x0e\xd1@'
p29
tp30
Rp31
tp32
sS'fitness'
p33
g20
(g13
S'?\xd2\x16(\xed\xc7\xed?'
p34
tp35
Rp36
sS'path'
p37
(lp38
(F0.0118
F0.07490000000000001
tp39
a(F0.012799999999999999
F0.0649
tp40
a(F0.0118
F0.0649
tp41
a(F0.012799999999999999
F0.0699
tp42
a(F0.0098
F0.0649
tp43
a(F0.008799999999999999
F0.07490000000000001
tp44
a(F0.011800000000000001
F0.07490000000000001
tp45
a(F0.0108
F0.0549
tp46
a(F0.0098
F0.0599
tp47
a(F0.0098
F0.0699
tp48
a(F0.0118
F0.0699
tp49
a(F0.0108
F0.07990000000000001
tp50
a(F0.012799999999999999
F0.0599
tp51
a(F0.011800000000000001
F0.0649
tp52
a(F0.0098
F0.07490000000000001
tp53
a(F0.008799999999999999
F0.0699
tp54
a(F0.008799999999999999
F0.07990000000000001
tp55
a(F0.012799999999999999
F0.07490000000000001
tp56
a(F0.0108
F0.07490000000000001
tp57
a(F0.0108
F0.0699
tp58
a(F0.0098
F0.0549
tp59
a(F0.0118
F0.0599
tp60
a(F0.0108
F0.0649
tp61
a(F0.011800000000000001
F0.0699
tp62
a(F0.0098
F0.07990000000000001
tp63
a(F0.011800000000000001
F0.0599
tp64
a(F0.0108
F0.0599
tp65
a(F0.0118
F0.0549
tp66
assI1
(dp67
g2
g3
(g4
(I0
tp68
g6
tp69
Rp70
(I1
(L13L
tp71
g13
I00
S'\xa4gf\xa7\xc1\x90h@\xe7P\xd0^\x84\x1ar@\x18\x1c\xb9\x12\n1{@}\x02\xb3mc\x84\x82@9\xe8\x14#\x01\x17\x88@\x91b\xb1)\xe1\xdf\x8d@^\xbd?\x90\xa9\xb8\x92@\x0f\xfcx\xb6e\xf0\x94@(\xc0\xfcw\xfb\xb6\x96@\x08\xb2\xb6D\xfa\xe3\x96@\xcdGN\x8d\xbb&\x96@\x96N\x16p\x86\x01\x94@\x05\xdd/h\x11L\x91@'
p72
tp73
bsg18
(lp74
g20
(g13
S'\x00\xa8\xc7\xeb(L\x89?'
p75
tp76
Rp77
ag20
(g13
S'\xfe\x98\x03B`\xe8\xaf?'
p78
tp79
Rp80
asg27
I31
sg28
(F0.009399999999999999
F0.07730000000000001
g20
(g13
S"\xd88w5\x99'\xd0@"
p81
tp82
Rp83
tp84
sg33
g20
(g13
S'\x1cuFJT\xb6\xed?'
p85
tp86
Rp87
sg37
(lp88
(F0.0114
F0.057300000000000004
tp89
a(F0.0114
F0.0673
tp90
a(F0.0134
F0.0673
tp91
a(F0.012400000000000001
F0.0623
tp92
a(F0.0104
F0.0623
tp93
a(F0.013399999999999999
F0.0673
tp94
a(F0.009399999999999999
F0.08230000000000001
tp95
a(F0.0114
F0.0573
tp96
a(F0.008399999999999998
F0.07730000000000001
tp97
a(F0.012400000000000001
F0.0723
tp98
a(F0.0114
F0.0623
tp99
a(F0.0134
F0.0623
tp100
a(F0.0114
F0.0723
tp101
a(F0.0124
F0.0673
tp102
a(F0.013399999999999999
F0.057300000000000004
tp103
a(F0.0104
F0.0723
tp104
a(F0.0134
F0.0573
tp105
a(F0.0114
F0.07730000000000001
tp106
a(F0.008399999999999998
F0.0723
tp107
a(F0.009399999999999999
F0.0723
tp108
a(F0.013399999999999999
F0.0623
tp109
a(F0.012400000000000001
F0.0673
tp110
a(F0.009399999999999999
F0.0673
tp111
a(F0.009399999999999999
F0.07730000000000001
tp112
a(F0.0124
F0.0573
tp113
a(F0.0124
F0.0623
tp114
a(F0.0104
F0.07730000000000001
tp115
a(F0.0104
F0.08230000000000001
tp116
a(F0.008399999999999998
F0.08230000000000001
tp117
a(F0.0104
F0.0673
tp118
a(F0.0124
F0.057300000000000004
tp119
assI2
(dp120
g2
g3
(g4
(I0
tp121
g6
tp122
Rp123
(I1
(L13L
tp124
g13
I00
S'\xb8\x89\xcf\xb6\x1cEm@O\xcf\xc9N\xd6\xe5t@0\xac\x88Y\xe2\xae}@\x14\x04C\xe9\x92:\x83@\xbc\xdbP\xfa\xfa\xe1\x88@\xf7\xb6.v\xc1X\x8f@^\xeeT\x1b\x893\x92@J\xe3\x85\xc3\xf4\xc0\x94@\xb1J\xb1\xabE\xfe\x95@N\t\xf4\xe26\\\x96@\xe0H.\x88\xb4\xf8\x95@\xcb\x191\xb7\x9cA\x94@\r\x99\x11\xba\x1f\xf2\x91@'
p125
tp126
bsg18
(lp127
g20
(g13
S'\xa8\x02\xda\xba\x02\x82\x86?'
p128
tp129
Rp130
ag20
(g13
S'\xaa\\0>\xe3\x80\xae?'
p131
tp132
Rp133
asg27
I23
sg28
(F0.011
F0.06960000000000001
g20
(g13
S';I\x8d\x9f-\xfd\xd0@'
p134
tp135
Rp136
tp137
sg33
g20
(g13
S'2 \x1c-\x8c\xbb\xed?'
p138
tp139
Rp140
sg37
(lp141
(F0.009999999999999998
F0.07460000000000001
tp142
a(F0.009999999999999998
F0.06960000000000001
tp143
a(F0.012
F0.0596
tp144
a(F0.009999999999999998
F0.05960000000000001
tp145
a(F0.013000000000000001
F0.05960000000000001
tp146
a(F0.012
F0.0546
tp147
a(F0.012
F0.06960000000000001
tp148
a(F0.012
F0.05960000000000001
tp149
a(F0.011
F0.06960000000000001
tp150
a(F0.011
F0.0646
tp151
a(F0.01
F0.0546
tp152
a(F0.011
F0.0596
tp153
a(F0.013000000000000001
F0.07460000000000001
tp154
a(F0.009999999999999998
F0.0646
tp155
a(F0.01
F0.0646
tp156
a(F0.01
F0.0596
tp157
a(F0.013000000000000001
F0.0646
tp158
a(F0.011
F0.07460000000000001
tp159
a(F0.012
F0.0646
tp160
a(F0.012
F0.07460000000000001
tp161
a(F0.011
F0.05960000000000001
tp162
a(F0.013000000000000001
F0.06960000000000001
tp163
a(F0.011
F0.0546
tp164
assI3
(dp165
g2
g3
(g4
(I0
tp166
g6
tp167
Rp168
(I1
(L13L
tp169
g13
I00
S'\x8b\x95\xe0\x08\xec#o@\x99s\xd4n\xd1\x1fv@e\x85\x1f\x9c\xe3\xcf~@\xb0&.2(\x85\x83@\xa9\xcbC\xc4 7\x89@\x05vD%\x1c\x05\x8f@P\x83Cvu\x8a\x92@fdC@\xf8\xa4\x94@\x97}\xc4\x16\x96\xce\x95@\x8d\x03\x1c\x9e\x89Q\x96@J,\xc23\xdd\x95\x95@\xb0\xf0\xb5\xd4\x1d\x1d\x94@O\x88;\xca\xd7a\x92@'
p170
tp171
bsg18
(lp172
g20
(g13
S'\ny\xb4o\x08Q\x89?'
p173
tp174
Rp175
ag20
(g13
S'\x90\x11t8\x88\n\xb0?'
p176
tp177
Rp178
asg27
I33
sg28
(F0.0114
F0.06770000000000001
g20
(g13
S'\x0f\t\xf2\xca\xb6\x18\xd1@'
p179
tp180
Rp181
tp182
sg33
g20
(g13
S'\x82W\xf9S\xf8\xda\xed?'
p183
tp184
Rp185
sg37
(lp186
(F0.013399999999999999
F0.05770000000000001
tp187
a(F0.0114
F0.0577
tp188
a(F0.013399999999999999
F0.06770000000000001
tp189
a(F0.0114
F0.0727
tp190
a(F0.0104
F0.06770000000000001
tp191
a(F0.0124
F0.0727
tp192
a(F0.013399999999999999
F0.06269999999999999
tp193
a(F0.0124
F0.05770000000000001
tp194
a(F0.013399999999999999
F0.0627
tp195
a(F0.0124
F0.0627
tp196
a(F0.0114
F0.06269999999999999
tp197
a(F0.013399999999999999
F0.0727
tp198
a(F0.0124
F0.06269999999999999
tp199
a(F0.0114
F0.057699999999999994
tp200
a(F0.0124
F0.057699999999999994
tp201
a(F0.0124
F0.0577
tp202
a(F0.0104
F0.0627
tp203
a(F0.0114
F0.07270000000000001
tp204
a(F0.0114
F0.0627
tp205
a(F0.0134
F0.0627
tp206
a(F0.0124
F0.06770000000000001
tp207
a(F0.013399999999999999
F0.0677
tp208
a(F0.012400000000000001
F0.07270000000000001
tp209
a(F0.012400000000000001
F0.0627
tp210
a(F0.012400000000000001
F0.06770000000000001
tp211
a(F0.0134
F0.0577
tp212
a(F0.0114
F0.06770000000000001
tp213
a(F0.0124
F0.0677
tp214
a(F0.013399999999999999
F0.057699999999999994
tp215
a(F0.0104
F0.07270000000000001
tp216
a(F0.0134
F0.0677
tp217
a(F0.0114
F0.05770000000000001
tp218
a(F0.0114
F0.0677
tp219
assI4
(dp220
g2
g3
(g4
(I0
tp221
g6
tp222
Rp223
(I1
(L13L
tp224
g13
I00
S'W\x15\\\xec;\x85j@\xb0\x1e\x93\x89\xc6\xb7r@[\xa2\xeb>\xbb\x04{@kZ\x98"z\x03\x83@E\xc2t4\xab\x1b\x88@Qv\x01v.\x89\x8e@\xe2\x9fa\x8br\xb6\x92@\xed\x97\xfa\xb9\xf2\x84\x95@\xb9Hm\x81\xb5j\x96@\xb7$\x92\xea\x9a\xd9\x96@\xcdH\x15\xe2\xa7#\x96@\xdf\x14\'Y\x8f\x97\x93@\xc5SY\xbc\x12\x1a\x91@'
p225
tp226
bsg18
(lp227
g20
(g13
S'\x00\x00\xa6\xec\x08\x1c\x86?'
p228
tp229
Rp230
ag20
(g13
S'\xa1\x7f$\xaf\x98*\xaf?'
p231
tp232
Rp233
asg27
I28
sg28
(F0.0098
F0.07590000000000001
g20
(g13
S'-\xe10\xf2M6\xd0@'
p234
tp235
Rp236
tp237
sg33
g20
(g13
S'7\x88K\xbf:\xd8\xed?'
p238
tp239
Rp240
sg37
(lp241
(F0.012799999999999999
F0.0709
tp242
a(F0.0108
F0.0559
tp243
a(F0.0098
F0.0559
tp244
a(F0.0118
F0.055900000000000005
tp245
a(F0.0098
F0.0609
tp246
a(F0.008799999999999999
F0.08090000000000001
tp247
a(F0.0108
F0.0609
tp248
a(F0.0108
F0.055900000000000005
tp249
a(F0.012799999999999999
F0.0609
tp250
a(F0.0108
F0.08090000000000001
tp251
a(F0.008799999999999999
F0.0709
tp252
a(F0.012799999999999999
F0.055900000000000005
tp253
a(F0.0108
F0.0709
tp254
a(F0.011800000000000001
F0.0709
tp255
a(F0.012799999999999999
F0.0659
tp256
a(F0.0118
F0.0559
tp257
a(F0.011800000000000001
F0.0659
tp258
a(F0.0118
F0.0709
tp259
a(F0.0108
F0.07590000000000001
tp260
a(F0.0098
F0.0709
tp261
a(F0.0118
F0.0609
tp262
a(F0.011800000000000001
F0.07590000000000001
tp263
a(F0.0098
F0.08090000000000001
tp264
a(F0.008799999999999999
F0.07590000000000001
tp265
a(F0.0118
F0.0659
tp266
a(F0.0098
F0.07590000000000001
tp267
a(F0.0108
F0.0659
tp268
a(F0.0098
F0.0659
tp269
assI5
(dp270
g2
g3
(g4
(I0
tp271
g6
tp272
Rp273
(I1
(L13L
tp274
g13
I00
S'\xe5y\xc6\xd8\xf3zo@v\x82\xact\xdb\xf8v@:~7\xd0l\x16\x7f@)\xb2F\xabP\x95\x84@u[\xb3\xc1\x9a\x81\x8a@F\xc7\xacO\xe0\xe0\x8f@\x89{\xa1\xec/\x9b\x92@M\x1a\x9a\xc5\xf4\xcf\x94@\xaex\xff\r8q\x95@E\xf3\xe1}qj\x96@\xff\x00=\xa6{~\x95@q~\xc1\xf4\xac\xa1\x93@Mc\x91\x1b\xe3\xbd\x91@'
p275
tp276
bsg18
(lp277
g20
(g13
S'\x94\xee\xee%1o\x87?'
p278
tp279
Rp280
ag20
(g13
S'\x0b\x80r:\x1d\xa9\xaf?'
p281
tp282
Rp283
asg27
I18
sg28
(F0.0124
F0.0668
g20
(g13
S's\x87\xe8\xef+\x0b\xd1@'
p284
tp285
Rp286
tp287
sg33
g20
(g13
S'9\xd9$T\x1c\xac\xed?'
p288
tp289
Rp290
sg37
(lp291
(F0.0114
F0.0718
tp292
a(F0.0114
F0.0568
tp293
a(F0.013399999999999999
F0.0668
tp294
a(F0.0124
F0.0618
tp295
a(F0.0104
F0.0668
tp296
a(F0.0104
F0.0618
tp297
a(F0.012400000000000001
F0.0668
tp298
a(F0.013399999999999999
F0.0718
tp299
a(F0.0124
F0.0718
tp300
a(F0.0104
F0.0718
tp301
a(F0.0124
F0.0668
tp302
a(F0.013399999999999999
F0.0618
tp303
a(F0.0124
F0.0568
tp304
a(F0.0114
F0.0618
tp305
a(F0.012400000000000001
F0.0718
tp306
a(F0.0114
F0.0668
tp307
a(F0.0104
F0.0568
tp308
a(F0.012400000000000001
F0.0618
tp309
assI6
(dp310
g2
g3
(g4
(I0
tp311
g6
tp312
Rp313
(I1
(L13L
tp314
g13
I00
S'+\x87*\r\xfc"m@H\xf2\xe2\x1f\xf2\xcbt@|\x07\xc1\xee\xe8\xd9}@\xa46\xc9\x88\xaf\xdb\x83@y\xe1v?\xd6\xfa\x89@\x92?\xd1\x04\xcbe\x8f@\xfd\xa2\x12\xba?\x9c\x92@\r\xf9z\x8c\xb9\xfb\x94@\xfe\x92u\x1b\x87g\x96@\x1e#\x07\x1d\xa3$\x96@"J\xc2\x8c\xa2\xce\x95@Q\xc5^\x85\x8e\x8e\x93@\xc0\x11\x00I\xe0m\x91@'
p315
tp316
bsg18
(lp317
g20
(g13
S'2\x97\xc7\xcd1s\x86?'
p318
tp319
Rp320
ag20
(g13
S'J\xd7\xe3\xd0Ty\xaf?'
p321
tp322
Rp323
asg27
I22
sg28
(F0.011
F0.07150000000000001
g20
(g13
S'e\\*r\xfb\xa9\xd0@'
p324
tp325
Rp326
tp327
sg33
g20
(g13
S'W:\x92\xd3)\xc9\xed?'
p328
tp329
Rp330
sg37
(lp331
(F0.013000000000000001
F0.0665
tp332
a(F0.013000000000000001
F0.07150000000000001
tp333
a(F0.011
F0.0665
tp334
a(F0.012
F0.07650000000000001
tp335
a(F0.009999999999999998
F0.07150000000000001
tp336
a(F0.01
F0.0565
tp337
a(F0.011
F0.07650000000000001
tp338
a(F0.011
F0.061500000000000006
tp339
a(F0.013000000000000001
F0.061500000000000006
tp340
a(F0.009999999999999998
F0.07650000000000001
tp341
a(F0.012
F0.07150000000000001
tp342
a(F0.009999999999999998
F0.061500000000000006
tp343
a(F0.012
F0.0615
tp344
a(F0.011
F0.0565
tp345
a(F0.012
F0.0565
tp346
a(F0.012
F0.0665
tp347
a(F0.011
F0.0615
tp348
a(F0.012
F0.061500000000000006
tp349
a(F0.009999999999999998
F0.0665
tp350
a(F0.01
F0.0615
tp351
a(F0.01
F0.0665
tp352
a(F0.011
F0.07150000000000001
tp353
assI7
(dp354
g2
g3
(g4
(I0
tp355
g6
tp356
Rp357
(I1
(L13L
tp358
g13
I00
S'>\xe6\xa4R\xe3nn@\xa8(q\xbb\xf1\xc9u@x\nC\x1c>v}@<\xc5\xc1\x14\xf1\xe0\x83@\x80\xef\xcf\x08\xf3\x9b\x89@88\xbc\xb2$I\x8f@\x0fT\xe9\xda\xf2\xb7\x92@\x07tc[\x0cW\x94@\x9c@\xac9iJ\x96@m>\xd9P\x91(\x96@D4\x9d\xe8\xe6\xdb\x95@\xbf\x91^\xed\xae\xec\x93@\x0fi\x98\xc95\xc6\x91@'
p359
tp360
bsg18
(lp361
g20
(g13
S"\x9bk'\xc1\xbe2\x87?"
p362
tp363
Rp364
ag20
(g13
S'{\xfdk\x9a\x00]\xae?'
p365
tp366
Rp367
asg27
I28
sg28
(F0.0113
F0.0693
g20
(g13
S'/\xd2[~\xc2\xdc\xd0@'
p368
tp369
Rp370
tp371
sg33
g20
(g13
S'#\xa2\xc7\xb8\x0c\xb0\xed?'
p372
tp373
Rp374
sg37
(lp375
(F0.0103
F0.0693
tp376
a(F0.0123
F0.0693
tp377
a(F0.0123
F0.0543
tp378
a(F0.011300000000000001
F0.0743
tp379
a(F0.012300000000000002
F0.0643
tp380
a(F0.0133
F0.0593
tp381
a(F0.011300000000000001
F0.0693
tp382
a(F0.0123
F0.0593
tp383
a(F0.0103
F0.0743
tp384
a(F0.012299999999999998
F0.0693
tp385
a(F0.0103
F0.0643
tp386
a(F0.012300000000000002
F0.0693
tp387
a(F0.0133
F0.0643
tp388
a(F0.0113
F0.0593
tp389
a(F0.011300000000000001
F0.0643
tp390
a(F0.0103
F0.0543
tp391
a(F0.012299999999999998
F0.0593
tp392
a(F0.0113
F0.0743
tp393
a(F0.0113
F0.0543
tp394
a(F0.0113
F0.0643
tp395
a(F0.012299999999999998
F0.0643
tp396
a(F0.0113
F0.0693
tp397
a(F0.0123
F0.0643
tp398
a(F0.011300000000000001
F0.0593
tp399
a(F0.0103
F0.0593
tp400
a(F0.012299999999999998
F0.0743
tp401
a(F0.0133
F0.0693
tp402
a(F0.012300000000000002
F0.0743
tp403
assI8
(dp404
g2
g3
(g4
(I0
tp405
g6
tp406
Rp407
(I1
(L13L
tp408
g13
I00
S'\x85B\x93O\xc1Uo@\xb7@\x06\xe0qcv@\xd2\x91\x97s \xa2|@\xcf\xd3\xe4\xba%\xaa\x83@\xc2MG\x0e\xa6\x04\x89@\xa6\xab\xa3!cA\x8e@\xccW,\x9f\xe8=\x92@\xe5\xd3\xb6\x9f\x87\xe0\x94@\x1ft\xa8\x8d\xd1\xfe\x95@\xd4\xcbU\xf2\x9f\x82\x96@\xf9\xe1"2\x9a\x8a\x95@n\xfa\xbb\xe8vG\x94@\x82j0\x1f\xc0Q\x92@'
p409
tp410
bsg18
(lp411
g20
(g13
S'\xe9\xf7\xc7p\xaf\x00\x87?'
p412
tp413
Rp414
ag20
(g13
S'\x8d\x02\xc9y\xd1\x14\xb0?'
p415
tp416
Rp417
asg27
I29
sg28
(F0.011200000000000002
F0.0678
g20
(g13
S'1\x99h\xfa\xf8L\xd1@'
p418
tp419
Rp420
tp421
sg33
g20
(g13
S'I\x86\xee\xec\xba\xc1\xed?'
p422
tp423
Rp424
sg37
(lp425
(F0.0092
F0.0728
tp426
a(F0.0112
F0.0578
tp427
a(F0.0122
F0.0578
tp428
a(F0.0092
F0.0678
tp429
a(F0.0122
F0.0628
tp430
a(F0.011200000000000002
F0.07780000000000001
tp431
a(F0.0102
F0.0728
tp432
a(F0.012200000000000003
F0.0628
tp433
a(F0.012199999999999999
F0.0728
tp434
a(F0.012199999999999999
F0.0628
tp435
a(F0.0132
F0.0628
tp436
a(F0.0102
F0.0678
tp437
a(F0.0092
F0.07780000000000001
tp438
a(F0.012200000000000003
F0.0728
tp439
a(F0.0122
F0.0728
tp440
a(F0.0112
F0.0728
tp441
a(F0.0132
F0.0728
tp442
a(F0.0112
F0.0628
tp443
a(F0.0112
F0.0678
tp444
a(F0.011200000000000002
F0.0728
tp445
a(F0.011200000000000002
F0.0678
tp446
a(F0.0102
F0.0578
tp447
a(F0.0102
F0.07780000000000001
tp448
a(F0.012199999999999999
F0.0678
tp449
a(F0.0132
F0.0678
tp450
a(F0.012200000000000003
F0.0678
tp451
a(F0.011200000000000002
F0.0628
tp452
a(F0.0102
F0.0628
tp453
a(F0.0122
F0.0678
tp454
assI9
(dp455
g2
g3
(g4
(I0
tp456
g6
tp457
Rp458
(I1
(L13L
tp459
g13
I00
S'\xf4\x96V>\x9f\x11m@\xdb\xca\xa9d\xfd\x17u@\xbd\xe8\xf6\x19\xc0R}@\xd6\x8b\x8e\xff\xc0\xe4\x83@\x9a\xd15f\x8c!\x89@~\xe3\x1b\xb3\xfc\xf6\x8d@\x0c!\x18\x8ap\x1b\x92@{M\x17\x18\xdf\xc5\x94@Q\x97\xba\x89\xcf\xba\x95@\x1f\xd2\xb9\xcaQ\x80\x96@k\xdbG\xb6\xb8\xc4\x95@{M\x17\x18\xdf\xc5\x94@\xb1\xeeP\x91b1\x92@'
p460
tp461
bsg18
(lp462
g20
(g13
S'\xae9K^u\xbc\x88?'
p463
tp464
Rp465
ag20
(g13
S'\xf3\xab\xfc\x80H\x15\xb0?'
p466
tp467
Rp468
asg27
I28
sg28
(F0.0111
F0.0678
g20
(g13
S'g.Y\xfazH\xd1@'
p469
tp470
Rp471
tp472
sg33
g20
(g13
S'>x\x86\x11\xa3\xc6\xed?'
p473
tp474
Rp475
sg37
(lp476
(F0.0121
F0.0578
tp477
a(F0.0111
F0.0628
tp478
a(F0.0091
F0.0678
tp479
a(F0.0091
F0.0728
tp480
a(F0.011100000000000002
F0.0678
tp481
a(F0.0131
F0.0628
tp482
a(F0.011100000000000002
F0.07780000000000001
tp483
a(F0.010100000000000001
F0.07780000000000001
tp484
a(F0.0111
F0.0728
tp485
a(F0.0121
F0.0628
tp486
a(F0.0111
F0.0678
tp487
a(F0.0091
F0.07780000000000001
tp488
a(F0.012100000000000003
F0.0728
tp489
a(F0.012100000000000003
F0.0678
tp490
a(F0.0131
F0.0578
tp491
a(F0.0131
F0.0728
tp492
a(F0.010100000000000001
F0.0728
tp493
a(F0.010100000000000001
F0.0678
tp494
a(F0.0131
F0.0678
tp495
a(F0.011099999999999999
F0.0678
tp496
a(F0.0121
F0.0678
tp497
a(F0.011099999999999999
F0.0628
tp498
a(F0.0121
F0.0728
tp499
a(F0.011099999999999999
F0.0728
tp500
a(F0.011100000000000002
F0.0728
tp501
a(F0.0111
F0.0578
tp502
a(F0.012100000000000003
F0.07780000000000001
tp503
a(F0.010100000000000001
F0.0628
tp504
ass.