(dp0
I0
(dp1
S'best_curve'
p2
cnumpy.core.multiarray
_reconstruct
p3
(cnumpy
ndarray
p4
(I0
tp5
S'b'
p6
tp7
Rp8
(I1
(L8L
tp9
cnumpy
dtype
p10
(S'f8'
p11
I0
I1
tp12
Rp13
(I3
S'<'
p14
NNNI-1
I-1
I0
tp15
bI00
S'\xe1W\xa9\x99\xc3)\x88@\x1fg\xd0\x8b\xbb<\x9c@\xe8R\x077\xc6\xed\xa9@\x9akdgs\xe2\xb2@z\xefi\x90\x9dl\xb6@$Yf\xb8\x16\x8b\xb7@B\xcaU\xf4\x8b\x03\xb6@kR\xf9\xaf\x80W\xb2@'
p16
tp17
bsS'pq0'
p18
(lp19
cnumpy.core.multiarray
scalar
p20
(g13
S'f\x93\x12\xf9\x7fV\x87?'
p21
tp22
Rp23
ag20
(g13
S'p"G!\x173\xc0?'
p24
tp25
Rp26
asS'steps'
p27
I91
sS'params'
p28
(F0.009399999999999995
F0.20660000000000006
g20
(g13
S'\x08\xf8L\x06\xa7\xf0\xe4@'
p29
tp30
Rp31
tp32
sS'fitness'
p33
g20
(g13
S'`\x19\x80k\x9d:\xef?'
p34
tp35
Rp36
sS'path'
p37
(lp38
(F0.012399999999999998
F0.1316
tp39
a(F0.012399999999999998
F0.1366
tp40
a(F0.0114
F0.1416
tp41
a(F0.013399999999999999
F0.1516
tp42
a(F0.009399999999999995
F0.20160000000000006
tp43
a(F0.0144
F0.17160000000000003
tp44
a(F0.012399999999999998
F0.1516
tp45
a(F0.009399999999999995
F0.20660000000000006
tp46
a(F0.010399999999999996
F0.17160000000000003
tp47
a(F0.010399999999999996
F0.20660000000000006
tp48
a(F0.013399999999999999
F0.1416
tp49
a(F0.011399999999999997
F0.19160000000000005
tp50
a(F0.013399999999999999
F0.18160000000000004
tp51
a(F0.0124
F0.1366
tp52
a(F0.011399999999999997
F0.18660000000000004
tp53
a(F0.0164
F0.1466
tp54
a(F0.0124
F0.1216
tp55
a(F0.012399999999999998
F0.1416
tp56
a(F0.013399999999999999
F0.1316
tp57
a(F0.011399999999999997
F0.20160000000000006
tp58
a(F0.013399999999999999
F0.16660000000000003
tp59
a(F0.013399999999999999
F0.17160000000000003
tp60
a(F0.0104
F0.1266
tp61
a(F0.0154
F0.1316
tp62
a(F0.010399999999999996
F0.18660000000000004
tp63
a(F0.011399999999999997
F0.19660000000000005
tp64
a(F0.012399999999999998
F0.17160000000000003
tp65
a(F0.0104
F0.1316
tp66
a(F0.012399999999999998
F0.17660000000000003
tp67
a(F0.0124
F0.12159999999999999
tp68
a(F0.011399999999999997
F0.16660000000000003
tp69
a(F0.008399999999999994
F0.19660000000000005
tp70
a(F0.0154
F0.1366
tp71
a(F0.013399999999999999
F0.15660000000000002
tp72
a(F0.0144
F0.1316
tp73
a(F0.0114
F0.1366
tp74
a(F0.0124
F0.1416
tp75
a(F0.009399999999999995
F0.21160000000000007
tp76
a(F0.0144
F0.1366
tp77
a(F0.0114
F0.1316
tp78
a(F0.012399999999999998
F0.16160000000000002
tp79
a(F0.0114
F0.1266
tp80
a(F0.0124
F0.1266
tp81
a(F0.0114
F0.12159999999999999
tp82
a(F0.008399999999999994
F0.18160000000000004
tp83
a(F0.008399999999999994
F0.21160000000000007
tp84
a(F0.010399999999999996
F0.17660000000000003
tp85
a(F0.0144
F0.1416
tp86
a(F0.009399999999999995
F0.17660000000000003
tp87
a(F0.012399999999999998
F0.1466
tp88
a(F0.0154
F0.1516
tp89
a(F0.013399999999999999
F0.12159999999999999
tp90
a(F0.008399999999999994
F0.20660000000000006
tp91
a(F0.0144
F0.1466
tp92
a(F0.008399999999999994
F0.19160000000000005
tp93
a(F0.0154
F0.1416
tp94
a(F0.0154
F0.15660000000000002
tp95
a(F0.012399999999999998
F0.18160000000000004
tp96
a(F0.010399999999999996
F0.20160000000000006
tp97
a(F0.0144
F0.1516
tp98
a(F0.008399999999999994
F0.20160000000000006
tp99
a(F0.0154
F0.1466
tp100
a(F0.011399999999999997
F0.17660000000000003
tp101
a(F0.013399999999999999
F0.1466
tp102
a(F0.0164
F0.1416
tp103
a(F0.0154
F0.16660000000000003
tp104
a(F0.0144
F0.16660000000000003
tp105
a(F0.008399999999999994
F0.18660000000000004
tp106
a(F0.0104
F0.1216
tp107
a(F0.012399999999999998
F0.16660000000000003
tp108
a(F0.0164
F0.1366
tp109
a(F0.010399999999999996
F0.21160000000000007
tp110
a(F0.010399999999999996
F0.18160000000000004
tp111
a(F0.013399999999999999
F0.1366
tp112
a(F0.0144
F0.16160000000000002
tp113
a(F0.009399999999999995
F0.18160000000000004
tp114
a(F0.013399999999999999
F0.17660000000000003
tp115
a(F0.0124
F0.1316
tp116
a(F0.012399999999999998
F0.15660000000000002
tp117
a(F0.009399999999999995
F0.18660000000000004
tp118
a(F0.011399999999999997
F0.17160000000000003
tp119
a(F0.0154
F0.16160000000000002
tp120
a(F0.011399999999999997
F0.18160000000000004
tp121
a(F0.013399999999999999
F0.1266
tp122
a(F0.013399999999999999
F0.16160000000000002
tp123
a(F0.009399999999999995
F0.19160000000000005
tp124
a(F0.0114
F0.1216
tp125
a(F0.010399999999999996
F0.19160000000000005
tp126
a(F0.0144
F0.15660000000000002
tp127
a(F0.010399999999999996
F0.19660000000000005
tp128
a(F0.009399999999999995
F0.19660000000000005
tp129
assI1
(dp130
g2
g3
(g4
(I0
tp131
g6
tp132
Rp133
(I1
(L8L
tp134
g13
I00
S'\xc9dT\xd4\xcb\x10\x83@\xc5}~v\x8b\xfe\x97@\x12@\xc2\x0e\xd29\xa7@;\x03\x07\xd2\x9d\xbd\xb1@UK\xaa\xcd\xb5\x98\xb6@\xcf9\x8d6\x06\x07\xb8@\xe4\xec\xcc\xc7\x91\xe7\xb6@\x1c\x99kg\xaf\x00\xb3@'
p135
tp136
bsg18
(lp137
g20
(g13
S'\xaa\x15s;\x06\x86\x8a?'
p138
tp139
Rp140
ag20
(g13
S'q4\xcex!/\xc1?'
p141
tp142
Rp143
asg27
I105
sg28
(F0.007999999999999993
F0.21930000000000008
g20
(g13
S'N\x14\xf9\xe3\xae\xb3\xe4@'
p144
tp145
Rp146
tp147
sg33
g20
(g13
S'\xd1\x1b\x9a\x034o\xef?'
p148
tp149
Rp150
sg37
(lp151
(F0.009999999999999995
F0.20430000000000006
tp152
a(F0.011999999999999997
F0.19430000000000006
tp153
a(F0.015
F0.1393
tp154
a(F0.010999999999999996
F0.18430000000000005
tp155
a(F0.014
F0.14930000000000002
tp156
a(F0.006999999999999993
F0.21930000000000008
tp157
a(F0.012999999999999998
F0.17430000000000004
tp158
a(F0.006999999999999993
F0.20930000000000007
tp159
a(F0.012
F0.1443
tp160
a(F0.007999999999999993
F0.20430000000000006
tp161
a(F0.013999999999999999
F0.16430000000000003
tp162
a(F0.008999999999999994
F0.21430000000000007
tp163
a(F0.012
F0.14930000000000002
tp164
a(F0.013000000000000001
F0.1293
tp165
a(F0.013
F0.1293
tp166
a(F0.013999999999999999
F0.15930000000000002
tp167
a(F0.008999999999999994
F0.20930000000000007
tp168
a(F0.015
F0.1343
tp169
a(F0.010999999999999996
F0.15930000000000002
tp170
a(F0.010999999999999996
F0.19430000000000006
tp171
a(F0.008999999999999994
F0.2293000000000001
tp172
a(F0.012999999999999998
F0.14930000000000002
tp173
a(F0.016
F0.1443
tp174
a(F0.014000000000000002
F0.15430000000000002
tp175
a(F0.008999999999999994
F0.19930000000000006
tp176
a(F0.008999999999999994
F0.19430000000000006
tp177
a(F0.012
F0.1293
tp178
a(F0.008999999999999994
F0.22430000000000008
tp179
a(F0.007999999999999993
F0.21930000000000008
tp180
a(F0.006999999999999993
F0.2343000000000001
tp181
a(F0.015
F0.15930000000000002
tp182
a(F0.012
F0.1393
tp183
a(F0.010999999999999996
F0.20430000000000006
tp184
a(F0.007999999999999993
F0.2293000000000001
tp185
a(F0.009999999999999995
F0.17430000000000004
tp186
a(F0.016
F0.15430000000000002
tp187
a(F0.012
F0.1343
tp188
a(F0.006999999999999993
F0.2293000000000001
tp189
a(F0.008999999999999994
F0.21930000000000008
tp190
a(F0.008999999999999994
F0.18430000000000005
tp191
a(F0.013
F0.1343
tp192
a(F0.009999999999999995
F0.19430000000000006
tp193
a(F0.009999999999999995
F0.17930000000000004
tp194
a(F0.013999999999999999
F0.14930000000000002
tp195
a(F0.014
F0.1393
tp196
a(F0.006999999999999993
F0.21430000000000007
tp197
a(F0.016
F0.15930000000000002
tp198
a(F0.007999999999999993
F0.20930000000000007
tp199
a(F0.015
F0.15430000000000002
tp200
a(F0.010999999999999996
F0.17930000000000004
tp201
a(F0.012999999999999998
F0.15930000000000002
tp202
a(F0.013999999999999999
F0.16930000000000003
tp203
a(F0.016
F0.14930000000000002
tp204
a(F0.011999999999999997
F0.18430000000000005
tp205
a(F0.009999999999999995
F0.18930000000000005
tp206
a(F0.010999999999999996
F0.19930000000000006
tp207
a(F0.008999999999999994
F0.2343000000000001
tp208
a(F0.011999999999999997
F0.18930000000000005
tp209
a(F0.015
F0.1443
tp210
a(F0.013000000000000001
F0.14930000000000002
tp211
a(F0.013000000000000001
F0.1393
tp212
a(F0.007999999999999993
F0.2343000000000001
tp213
a(F0.008999999999999994
F0.20430000000000006
tp214
a(F0.013000000000000001
F0.1343
tp215
a(F0.013999999999999999
F0.15430000000000002
tp216
a(F0.015
F0.1293
tp217
a(F0.013999999999999999
F0.1443
tp218
a(F0.012999999999999998
F0.16930000000000003
tp219
a(F0.012999999999999998
F0.15430000000000002
tp220
a(F0.010999999999999996
F0.18930000000000005
tp221
a(F0.011999999999999997
F0.16930000000000003
tp222
a(F0.014000000000000002
F0.14930000000000002
tp223
a(F0.013999999999999999
F0.1393
tp224
a(F0.013
F0.1393
tp225
a(F0.011999999999999997
F0.17930000000000004
tp226
a(F0.008999999999999994
F0.18930000000000005
tp227
a(F0.014
F0.1293
tp228
a(F0.011999999999999997
F0.17430000000000004
tp229
a(F0.012999999999999998
F0.17930000000000004
tp230
a(F0.012999999999999998
F0.1443
tp231
a(F0.013000000000000001
F0.1443
tp232
a(F0.010999999999999996
F0.16430000000000003
tp233
a(F0.008999999999999994
F0.17930000000000004
tp234
a(F0.009999999999999995
F0.18430000000000005
tp235
a(F0.009999999999999995
F0.21430000000000007
tp236
a(F0.011999999999999997
F0.15930000000000002
tp237
a(F0.009999999999999995
F0.19930000000000006
tp238
a(F0.009999999999999995
F0.20930000000000007
tp239
a(F0.007999999999999993
F0.19430000000000006
tp240
a(F0.010999999999999996
F0.17430000000000004
tp241
a(F0.014
F0.1343
tp242
a(F0.007999999999999993
F0.22430000000000008
tp243
a(F0.011999999999999997
F0.16430000000000003
tp244
a(F0.006999999999999993
F0.22430000000000008
tp245
a(F0.007999999999999993
F0.19930000000000006
tp246
a(F0.007999999999999993
F0.21430000000000007
tp247
a(F0.012
F0.15430000000000002
tp248
a(F0.014
F0.1443
tp249
a(F0.013000000000000001
F0.15430000000000002
tp250
a(F0.015
F0.14930000000000002
tp251
a(F0.014000000000000002
F0.1443
tp252
a(F0.012999999999999998
F0.16430000000000003
tp253
a(F0.016
F0.1393
tp254
a(F0.010999999999999996
F0.16930000000000003
tp255
a(F0.011999999999999997
F0.15430000000000002
tp256
assI2
(dp257
g2
g3
(g4
(I0
tp258
g6
tp259
Rp260
(I1
(L8L
tp261
g13
I00
S'\xff\xa5\xcb\x14\xca\xb7\x84@9\xd9*\x9c\t\xd9\x9a@\xe8\x87\x99hr\r\xa8@-\x9f*\xae\x8e\x0f\xb2@,\xa1\x08\xa4/\x8a\xb6@_\x0b\xa7\xad|:\xb8@\xdd\x99\x8b\xb4\x13\x98\xb6@\x82Z\xec\xcc\x1dW\xb2@'
p262
tp263
bsg18
(lp264
g20
(g13
S"\xa6\t2'\xa1\xe2\x8a?"
p265
tp266
Rp267
ag20
(g13
S'\xba\xf4S\x86F\xd3\xc0?'
p268
tp269
Rp270
asg27
I101
sg28
(F0.008099999999999993
F0.22140000000000007
g20
(g13
S'\xbe(\xd2 \xb2\x8d\xe4@'
p271
tp272
Rp273
tp274
sg33
g20
(g13
S'\xaa\x8a\xf4P_h\xef?'
p275
tp276
Rp277
sg37
(lp278
(F0.009099999999999994
F0.21640000000000006
tp279
a(F0.014099999999999998
F0.1514
tp280
a(F0.012099999999999996
F0.17640000000000003
tp281
a(F0.011099999999999995
F0.17140000000000002
tp282
a(F0.011099999999999995
F0.20140000000000005
tp283
a(F0.0131
F0.1314
tp284
a(F0.0161
F0.1464
tp285
a(F0.013099999999999997
F0.16640000000000002
tp286
a(F0.008099999999999993
F0.22640000000000007
tp287
a(F0.012099999999999996
F0.17140000000000002
tp288
a(F0.014099999999999998
F0.17640000000000003
tp289
a(F0.010099999999999994
F0.20140000000000005
tp290
a(F0.0131
F0.1364
tp291
a(F0.007099999999999993
F0.22140000000000007
tp292
a(F0.013099999999999997
F0.18140000000000003
tp293
a(F0.0141
F0.1264
tp294
a(F0.012099999999999996
F0.19140000000000004
tp295
a(F0.014099999999999998
F0.16140000000000002
tp296
a(F0.0121
F0.1314
tp297
a(F0.009099999999999994
F0.19640000000000005
tp298
a(F0.007099999999999993
F0.20640000000000006
tp299
a(F0.014099999999999998
F0.17140000000000002
tp300
a(F0.0121
F0.1264
tp301
a(F0.0131
F0.1464
tp302
a(F0.012099999999999996
F0.1564
tp303
a(F0.015099999999999999
F0.1414
tp304
a(F0.013099999999999997
F0.1464
tp305
a(F0.0161
F0.1414
tp306
a(F0.012099999999999996
F0.1514
tp307
a(F0.010099999999999994
F0.17640000000000003
tp308
a(F0.012099999999999996
F0.19640000000000005
tp309
a(F0.011099999999999995
F0.1514
tp310
a(F0.010099999999999994
F0.20640000000000006
tp311
a(F0.009099999999999994
F0.20140000000000005
tp312
a(F0.013099999999999997
F0.17140000000000002
tp313
a(F0.012099999999999996
F0.16140000000000002
tp314
a(F0.010099999999999994
F0.18640000000000004
tp315
a(F0.0131
F0.1264
tp316
a(F0.008099999999999993
F0.20640000000000006
tp317
a(F0.0121
F0.1414
tp318
a(F0.011099999999999995
F0.16140000000000002
tp319
a(F0.014099999999999998
F0.1364
tp320
a(F0.0141
F0.1364
tp321
a(F0.011099999999999995
F0.18140000000000003
tp322
a(F0.014100000000000001
F0.1364
tp323
a(F0.008099999999999993
F0.19640000000000005
tp324
a(F0.0121
F0.1364
tp325
a(F0.012099999999999996
F0.18140000000000003
tp326
a(F0.010099999999999994
F0.17140000000000002
tp327
a(F0.011099999999999995
F0.19640000000000005
tp328
a(F0.009099999999999994
F0.18140000000000003
tp329
a(F0.013099999999999997
F0.1514
tp330
a(F0.009099999999999994
F0.19140000000000004
tp331
a(F0.011099999999999995
F0.16640000000000002
tp332
a(F0.015099999999999999
F0.16140000000000002
tp333
a(F0.007099999999999993
F0.21640000000000006
tp334
a(F0.008099999999999993
F0.21140000000000006
tp335
a(F0.010099999999999994
F0.21140000000000006
tp336
a(F0.011099999999999995
F0.17640000000000003
tp337
a(F0.013099999999999997
F0.1414
tp338
a(F0.013099999999999997
F0.16140000000000002
tp339
a(F0.008099999999999993
F0.20140000000000005
tp340
a(F0.009099999999999994
F0.20640000000000006
tp341
a(F0.0171
F0.1414
tp342
a(F0.014099999999999998
F0.1464
tp343
a(F0.015099999999999999
F0.1464
tp344
a(F0.014099999999999998
F0.1564
tp345
a(F0.009099999999999994
F0.22140000000000007
tp346
a(F0.015099999999999999
F0.1514
tp347
a(F0.008099999999999993
F0.21640000000000006
tp348
a(F0.007099999999999993
F0.21140000000000006
tp349
a(F0.011099999999999995
F0.18640000000000004
tp350
a(F0.0131
F0.1414
tp351
a(F0.010099999999999994
F0.19640000000000005
tp352
a(F0.013099999999999997
F0.17640000000000003
tp353
a(F0.012099999999999996
F0.16640000000000002
tp354
a(F0.0171
F0.1364
tp355
a(F0.014099999999999998
F0.16640000000000002
tp356
a(F0.0141
F0.1314
tp357
a(F0.010099999999999994
F0.18140000000000003
tp358
a(F0.014100000000000001
F0.1414
tp359
a(F0.009099999999999994
F0.21140000000000006
tp360
a(F0.015099999999999999
F0.1564
tp361
a(F0.0171
F0.1464
tp362
a(F0.0141
F0.1464
tp363
a(F0.014100000000000001
F0.1314
tp364
a(F0.015099999999999999
F0.1314
tp365
a(F0.011099999999999995
F0.1564
tp366
a(F0.014099999999999998
F0.1414
tp367
a(F0.015099999999999999
F0.1364
tp368
a(F0.008099999999999993
F0.22140000000000007
tp369
a(F0.0141
F0.1414
tp370
a(F0.010099999999999994
F0.19140000000000004
tp371
a(F0.012099999999999996
F0.18640000000000004
tp372
a(F0.012099999999999996
F0.1464
tp373
a(F0.013099999999999997
F0.1564
tp374
a(F0.011099999999999995
F0.19140000000000004
tp375
a(F0.009099999999999994
F0.22640000000000007
tp376
a(F0.009099999999999994
F0.18640000000000004
tp377
a(F0.007099999999999993
F0.22640000000000007
tp378
a(F0.0161
F0.1364
tp379
assI3
(dp380
g2
g3
(g4
(I0
tp381
g6
tp382
Rp383
(I1
(L8L
tp384
g13
I00
S'\x19\x17<\xd1.!\x86@\xf9=>\xe6\xd9G\x9a@\xd6\xd4z\xd6\x02\x0f\xa8@\xba\xd9\xcfgU\xeb\xb1@\xc4\xec\xd0\xb9\xf9\xdb\xb5@\xe1\xa8\x12\x84\xbd\x8b\xb7@v\xc1T\x85\x1a\xd1\xb6@\xf3<0p\xe4\xce\xb3@'
p385
tp386
bsg18
(lp387
g20
(g13
S'\x91\xdeei\x17\xe1\x88?'
p388
tp389
Rp390
ag20
(g13
S'\xbcv\xef{.7\xc1?'
p391
tp392
Rp393
asg27
I67
sg28
(F0.009099999999999997
F0.19450000000000006
g20
(g13
S'\xd0\xb8-\xb3=\xcd\xe5@'
p394
tp395
Rp396
tp397
sg33
g20
(g13
S'\xc0C\x9c\xf2\xa9:\xef?'
p398
tp399
Rp400
sg37
(lp401
(F0.0121
F0.1345
tp402
a(F0.008099999999999996
F0.19950000000000007
tp403
a(F0.016100000000000003
F0.15450000000000003
tp404
a(F0.011099999999999999
F0.18950000000000006
tp405
a(F0.0131
F0.1395
tp406
a(F0.008099999999999996
F0.19450000000000006
tp407
a(F0.0131
F0.17450000000000004
tp408
a(F0.015100000000000002
F0.14450000000000002
tp409
a(F0.0121
F0.1395
tp410
a(F0.011099999999999999
F0.19450000000000006
tp411
a(F0.0111
F0.1345
tp412
a(F0.011099999999999999
F0.18450000000000005
tp413
a(F0.009099999999999997
F0.18450000000000005
tp414
a(F0.015100000000000002
F0.14950000000000002
tp415
a(F0.014100000000000001
F0.15450000000000003
tp416
a(F0.008099999999999996
F0.18950000000000006
tp417
a(F0.0111
F0.1395
tp418
a(F0.009099999999999997
F0.17950000000000005
tp419
a(F0.0131
F0.15450000000000003
tp420
a(F0.0121
F0.15950000000000003
tp421
a(F0.011099999999999999
F0.16950000000000004
tp422
a(F0.010099999999999998
F0.18450000000000005
tp423
a(F0.0121
F0.18950000000000006
tp424
a(F0.015100000000000002
F0.16450000000000004
tp425
a(F0.0121
F0.14950000000000002
tp426
a(F0.011099999999999999
F0.19950000000000007
tp427
a(F0.0131
F0.15950000000000003
tp428
a(F0.0121
F0.17950000000000005
tp429
a(F0.014100000000000001
F0.1345
tp430
a(F0.010099999999999998
F0.18950000000000006
tp431
a(F0.010099999999999998
F0.19450000000000006
tp432
a(F0.016100000000000003
F0.14450000000000002
tp433
a(F0.0131
F0.14950000000000002
tp434
a(F0.0121
F0.16950000000000004
tp435
a(F0.011099999999999999
F0.17450000000000004
tp436
a(F0.015100000000000002
F0.15450000000000003
tp437
a(F0.011099999999999999
F0.17950000000000005
tp438
a(F0.009099999999999997
F0.19950000000000007
tp439
a(F0.014100000000000001
F0.16950000000000004
tp440
a(F0.014100000000000001
F0.14950000000000002
tp441
a(F0.0121
F0.17450000000000004
tp442
a(F0.014100000000000001
F0.14450000000000002
tp443
a(F0.015100000000000002
F0.15950000000000003
tp444
a(F0.010099999999999998
F0.19950000000000007
tp445
a(F0.014100000000000001
F0.15950000000000003
tp446
a(F0.0121
F0.16450000000000004
tp447
a(F0.0131
F0.1295
tp448
a(F0.009099999999999997
F0.18950000000000006
tp449
a(F0.014100000000000001
F0.1295
tp450
a(F0.0131
F0.17950000000000005
tp451
a(F0.0121
F0.14450000000000002
tp452
a(F0.015100000000000002
F0.1395
tp453
a(F0.010099999999999998
F0.17450000000000004
tp454
a(F0.015100000000000002
F0.16950000000000004
tp455
a(F0.0131
F0.14450000000000002
tp456
a(F0.0121
F0.18450000000000005
tp457
a(F0.0131
F0.16450000000000004
tp458
a(F0.0131
F0.1345
tp459
a(F0.009099999999999997
F0.19450000000000006
tp460
a(F0.0111
F0.1295
tp461
a(F0.0131
F0.16950000000000004
tp462
a(F0.016100000000000003
F0.14950000000000002
tp463
a(F0.010099999999999998
F0.17950000000000005
tp464
a(F0.014100000000000001
F0.16450000000000004
tp465
a(F0.014100000000000001
F0.17450000000000004
tp466
a(F0.014100000000000001
F0.1395
tp467
a(F0.0121
F0.1295
tp468
assI4
(dp469
g2
g3
(g4
(I0
tp470
g6
tp471
Rp472
(I1
(L8L
tp473
g13
I00
S"=\xe4\x03M\xeaT\x91@9\xcc\xefM\x19\xa8\xa0@w\x98\x04u\xb1\xf4\xa9@\x10\x1b\xdc/+%\xb2@c\xaeu\x95\x8f'\xb5@\xeaz\xa8\xcct\xdc\xb6@\xa8\x1a\xd4p6-\xb6@h\x06\xd3J\x80\xfd\xb3@"
p474
tp475
bsg18
(lp476
g20
(g13
S'\xa2[\t\x8cRQ\x8f?'
p477
tp478
Rp479
ag20
(g13
S'\xac\x1ecdt\xd2\xc0?'
p480
tp481
Rp482
asg27
I33
sg28
(F0.015300000000000001
F0.1464
g20
(g13
S'}\x8a\xc1\xc5\xfd\xb3\xe7@'
p483
tp484
Rp485
tp486
sg33
g20
(g13
S'K\xef\xfb\xfb\xe0B\xee?'
p487
tp488
Rp489
sg37
(lp490
(F0.0153
F0.1464
tp491
a(F0.0153
F0.1514
tp492
a(F0.0143
F0.1364
tp493
a(F0.0163
F0.1464
tp494
a(F0.0143
F0.1464
tp495
a(F0.0163
F0.1514
tp496
a(F0.0143
F0.1264
tp497
a(F0.0163
F0.1364
tp498
a(F0.0143
F0.1414
tp499
a(F0.0133
F0.1464
tp500
a(F0.015300000000000001
F0.1464
tp501
a(F0.015300000000000001
F0.1514
tp502
a(F0.016300000000000002
F0.1364
tp503
a(F0.0153
F0.1314
tp504
a(F0.0133
F0.1364
tp505
a(F0.015300000000000001
F0.1414
tp506
a(F0.0153
F0.1264
tp507
a(F0.0143
F0.1314
tp508
a(F0.0133
F0.1414
tp509
a(F0.015300000000000001
F0.1314
tp510
a(F0.016300000000000002
F0.1414
tp511
a(F0.015300000000000001
F0.1364
tp512
a(F0.0143
F0.1514
tp513
a(F0.0133
F0.1314
tp514
a(F0.0163
F0.1264
tp515
a(F0.0133
F0.1514
tp516
a(F0.0153
F0.1414
tp517
a(F0.016300000000000002
F0.1514
tp518
a(F0.016300000000000002
F0.1464
tp519
a(F0.0163
F0.1314
tp520
a(F0.0163
F0.1414
tp521
a(F0.016300000000000002
F0.1314
tp522
a(F0.0153
F0.1364
tp523
assI5
(dp524
g2
g3
(g4
(I0
tp525
g6
tp526
Rp527
(I1
(L8L
tp528
g13
I00
S'\x83\xfeH\x81)\x9f\x83@\xba[x\x87ni\x9a@$e\xdcc\xc0H\xa8@\xc3\x89\x1f\xd4\x97&\xb2@\xd8\xa2p\xbc\x18\xa9\xb6@\\\x8bj\xbe\xf07\xb8@\x1a\x95A\xb8[\x8d\xb6@\xeb}\xc9<,&\xb2@'
p529
tp530
bsg18
(lp531
g20
(g13
S'R\xe2\x86\xfdG\xfb\x84?'
p532
tp533
Rp534
ag20
(g13
S'\x1f\xfbpEa\xba\xc0?'
p535
tp536
Rp537
asg27
I107
sg28
(F0.008199999999999995
F0.22070000000000006
g20
(g13
S'YYzuy\x85\xe4@'
p538
tp539
Rp540
tp541
sg33
g20
(g13
S'\xa5c\xa9\x97\xcch\xef?'
p542
tp543
Rp544
sg37
(lp545
(F0.012199999999999999
F0.1257
tp546
a(F0.0071999999999999955
F0.22070000000000006
tp547
a(F0.0142
F0.17070000000000002
tp548
a(F0.010199999999999997
F0.17070000000000002
tp549
a(F0.0112
F0.13069999999999998
tp550
a(F0.009199999999999996
F0.23070000000000007
tp551
a(F0.0071999999999999955
F0.19570000000000004
tp552
a(F0.008199999999999995
F0.19570000000000004
tp553
a(F0.008199999999999995
F0.23070000000000007
tp554
a(F0.0102
F0.1407
tp555
a(F0.015200000000000002
F0.1557
tp556
a(F0.0112
F0.1407
tp557
a(F0.010199999999999997
F0.17570000000000002
tp558
a(F0.009199999999999996
F0.18570000000000003
tp559
a(F0.0092
F0.1307
tp560
a(F0.012199999999999999
F0.1557
tp561
a(F0.012199999999999999
F0.19070000000000004
tp562
a(F0.0061999999999999954
F0.23570000000000008
tp563
a(F0.012199999999999999
F0.13570000000000002
tp564
a(F0.008199999999999995
F0.23570000000000008
tp565
a(F0.008199999999999995
F0.22070000000000006
tp566
a(F0.011199999999999998
F0.16570000000000001
tp567
a(F0.0132
F0.1357
tp568
a(F0.012199999999999999
F0.16570000000000001
tp569
a(F0.010199999999999997
F0.19570000000000004
tp570
a(F0.011199999999999998
F0.19570000000000004
tp571
a(F0.009199999999999996
F0.22570000000000007
tp572
a(F0.011199999999999998
F0.20070000000000005
tp573
a(F0.0112
F0.1357
tp574
a(F0.0102
F0.1357
tp575
a(F0.0142
F0.1607
tp576
a(F0.012199999999999999
F0.1457
tp577
a(F0.0132
F0.17570000000000002
tp578
a(F0.009199999999999996
F0.19070000000000004
tp579
a(F0.0142
F0.1407
tp580
a(F0.0061999999999999954
F0.23070000000000007
tp581
a(F0.008199999999999995
F0.21570000000000006
tp582
a(F0.0102
F0.13069999999999998
tp583
a(F0.0112
F0.13570000000000002
tp584
a(F0.012199999999999999
F0.17570000000000002
tp585
a(F0.010199999999999997
F0.18570000000000003
tp586
a(F0.011199999999999998
F0.19070000000000004
tp587
a(F0.0092
F0.1257
tp588
a(F0.0112
F0.1307
tp589
a(F0.0102
F0.13570000000000002
tp590
a(F0.010199999999999997
F0.19070000000000004
tp591
a(F0.008199999999999995
F0.20570000000000005
tp592
a(F0.0071999999999999955
F0.21070000000000005
tp593
a(F0.009199999999999996
F0.20570000000000005
tp594
a(F0.008199999999999995
F0.22570000000000007
tp595
a(F0.0102
F0.1307
tp596
a(F0.009199999999999996
F0.20070000000000005
tp597
a(F0.009199999999999996
F0.19570000000000004
tp598
a(F0.0071999999999999955
F0.21570000000000006
tp599
a(F0.012199999999999999
F0.18570000000000003
tp600
a(F0.011199999999999998
F0.1357
tp601
a(F0.012199999999999999
F0.13069999999999998
tp602
a(F0.011199999999999998
F0.1457
tp603
a(F0.008199999999999995
F0.19070000000000004
tp604
a(F0.012199999999999999
F0.18070000000000003
tp605
a(F0.011199999999999998
F0.18570000000000003
tp606
a(F0.011199999999999998
F0.17570000000000002
tp607
a(F0.0132
F0.1507
tp608
a(F0.0142
F0.1507
tp609
a(F0.010199999999999997
F0.20070000000000005
tp610
a(F0.012199999999999999
F0.1407
tp611
a(F0.011199999999999998
F0.13069999999999998
tp612
a(F0.010199999999999997
F0.20570000000000005
tp613
a(F0.011199999999999998
F0.17070000000000002
tp614
a(F0.011199999999999998
F0.1407
tp615
a(F0.0071999999999999955
F0.23070000000000007
tp616
a(F0.0132
F0.16570000000000001
tp617
a(F0.015200000000000002
F0.1507
tp618
a(F0.012199999999999999
F0.1607
tp619
a(F0.0132
F0.18070000000000003
tp620
a(F0.0142
F0.1557
tp621
a(F0.011199999999999998
F0.1507
tp622
a(F0.0071999999999999955
F0.20070000000000005
tp623
a(F0.009199999999999996
F0.22070000000000006
tp624
a(F0.009199999999999996
F0.21570000000000006
tp625
a(F0.008199999999999995
F0.21070000000000005
tp626
a(F0.0061999999999999954
F0.22570000000000007
tp627
a(F0.0132
F0.13069999999999998
tp628
a(F0.012199999999999999
F0.1507
tp629
a(F0.008199999999999995
F0.20070000000000005
tp630
a(F0.009199999999999996
F0.21070000000000005
tp631
a(F0.0132
F0.1457
tp632
a(F0.0071999999999999955
F0.20570000000000005
tp633
a(F0.011199999999999998
F0.18070000000000003
tp634
a(F0.0132
F0.1407
tp635
a(F0.0112
F0.1257
tp636
a(F0.012199999999999999
F0.17070000000000002
tp637
a(F0.010199999999999997
F0.21070000000000005
tp638
a(F0.0142
F0.1457
tp639
a(F0.0102
F0.1257
tp640
a(F0.010199999999999997
F0.18070000000000003
tp641
a(F0.0092
F0.1357
tp642
a(F0.0132
F0.1607
tp643
a(F0.012199999999999999
F0.1357
tp644
a(F0.012199999999999999
F0.1307
tp645
a(F0.0132
F0.17070000000000002
tp646
a(F0.0142
F0.16570000000000001
tp647
a(F0.0132
F0.1557
tp648
a(F0.0071999999999999955
F0.22570000000000007
tp649
a(F0.0132
F0.18570000000000003
tp650
a(F0.015200000000000002
F0.1607
tp651
a(F0.0071999999999999955
F0.23570000000000008
tp652
assI6
(dp653
g2
g3
(g4
(I0
tp654
g6
tp655
Rp656
(I1
(L8L
tp657
g13
I00
S'\x8e\x0eg\x1c\x8f\x1d\x8b@\xfd\xb7*$\x8a\xa2\x9d@\x9ea\x8fe\x1b\xba\xa9@\x9f\xb3\x84\xdcxQ\xb2@GY\xcc\xc0$\x0f\xb6@\xcf\xf2\xd4\xdc\x8aZ\xb7@pX\x94c\xa1T\xb6@\xbab\x82\x99j\x01\xb3@'
p658
tp659
bsg18
(lp660
g20
(g13
S'g]\xc2{\xbe\x04\x85?'
p661
tp662
Rp663
ag20
(g13
S'\x94\x04\x0fO\xad\x7f\xc0?'
p664
tp665
Rp666
asg27
I72
sg28
(F0.011299999999999998
F0.18390000000000004
g20
(g13
S'\x9f\x81\xa6v\xdb\xbf\xe5@'
p667
tp668
Rp669
tp670
sg33
g20
(g13
S'S\xdc\xb8V\xd3\x0e\xef?'
p671
tp672
Rp673
sg37
(lp674
(F0.015300000000000001
F0.1389
tp675
a(F0.011299999999999998
F0.1439
tp676
a(F0.0143
F0.1539
tp677
a(F0.0143
F0.16390000000000002
tp678
a(F0.011299999999999998
F0.17390000000000003
tp679
a(F0.0143
F0.1489
tp680
a(F0.015300000000000001
F0.16390000000000002
tp681
a(F0.0143
F0.1389
tp682
a(F0.0093
F0.1289
tp683
a(F0.010299999999999997
F0.17890000000000003
tp684
a(F0.0103
F0.1239
tp685
a(F0.0103
F0.12389999999999998
tp686
a(F0.011299999999999998
F0.18390000000000004
tp687
a(F0.0133
F0.1539
tp688
a(F0.012299999999999998
F0.1589
tp689
a(F0.015300000000000001
F0.1489
tp690
a(F0.009299999999999996
F0.18890000000000004
tp691
a(F0.011299999999999998
F0.16890000000000002
tp692
a(F0.015300000000000001
F0.1439
tp693
a(F0.0103
F0.1289
tp694
a(F0.0133
F0.1389
tp695
a(F0.0103
F0.1339
tp696
a(F0.011299999999999998
F0.1389
tp697
a(F0.015300000000000001
F0.1539
tp698
a(F0.011300000000000001
F0.1289
tp699
a(F0.012299999999999998
F0.1389
tp700
a(F0.011299999999999998
F0.1339
tp701
a(F0.011299999999999998
F0.17890000000000003
tp702
a(F0.0133
F0.1589
tp703
a(F0.010299999999999997
F0.18390000000000004
tp704
a(F0.012299999999999998
F0.17390000000000003
tp705
a(F0.0133
F0.17890000000000003
tp706
a(F0.0143
F0.1589
tp707
a(F0.011300000000000001
F0.12389999999999998
tp708
a(F0.012299999999999998
F0.18390000000000004
tp709
a(F0.0133
F0.16890000000000002
tp710
a(F0.0113
F0.1239
tp711
a(F0.011300000000000001
F0.1339
tp712
a(F0.0133
F0.1339
tp713
a(F0.012299999999999998
F0.18890000000000004
tp714
a(F0.0103
F0.1389
tp715
a(F0.0133
F0.1289
tp716
a(F0.0093
F0.1339
tp717
a(F0.010299999999999997
F0.17390000000000003
tp718
a(F0.0093
F0.1239
tp719
a(F0.012299999999999998
F0.1489
tp720
a(F0.0093
F0.12389999999999998
tp721
a(F0.009299999999999996
F0.17890000000000003
tp722
a(F0.010299999999999997
F0.18890000000000004
tp723
a(F0.0143
F0.1439
tp724
a(F0.012299999999999998
F0.16390000000000002
tp725
a(F0.0113
F0.1339
tp726
a(F0.0133
F0.18390000000000004
tp727
a(F0.012299999999999998
F0.16890000000000002
tp728
a(F0.0133
F0.17390000000000003
tp729
a(F0.0133
F0.1489
tp730
a(F0.012299999999999998
F0.1339
tp731
a(F0.0113
F0.1389
tp732
a(F0.0143
F0.16890000000000002
tp733
a(F0.012299999999999998
F0.1289
tp734
a(F0.015300000000000001
F0.1589
tp735
a(F0.012299999999999998
F0.17890000000000003
tp736
a(F0.011299999999999998
F0.1289
tp737
a(F0.012299999999999998
F0.1439
tp738
a(F0.012299999999999998
F0.1539
tp739
a(F0.009299999999999996
F0.18390000000000004
tp740
a(F0.0133
F0.16390000000000002
tp741
a(F0.011299999999999998
F0.16390000000000002
tp742
a(F0.011299999999999998
F0.18890000000000004
tp743
a(F0.0133
F0.1439
tp744
a(F0.0113
F0.1289
tp745
a(F0.0143
F0.1339
tp746
assI7
(dp747
g2
g3
(g4
(I0
tp748
g6
tp749
Rp750
(I1
(L8L
tp751
g13
I00
S'\x9b\x15\xc4p\xd6\x8f\x8b@\x04\xf1\xfa1A\x94\x9e@\x12"t\x9f\xfa\xb5\xa9@\x1a\xff\x18)Y`\xb2@\x8a\xd4\x84 \x80\x0f\xb6@R\xe3I\xdb\x9f)\xb7@\xd2\xfeK\x12\xb2\'\xb6@\x98(92 ?\xb3@'
p752
tp753
bsg18
(lp754
g20
(g13
S'p\xb6\x8c\xa3\xfa\xa9\x8b?'
p755
tp756
Rp757
ag20
(g13
S'B\x16\xbd\xefN\xd2\xc1?'
p758
tp759
Rp760
asg27
I46
sg28
(F0.0125
F0.16920000000000002
g20
(g13
S'v\x1e>\xf4cJ\xe6@'
p761
tp762
Rp763
tp764
sg33
g20
(g13
S'\x08\x90\x91\xb1.\xf4\xee?'
p765
tp766
Rp767
sg37
(lp768
(F0.0125
F0.16920000000000002
tp769
a(F0.0115
F0.1642
tp770
a(F0.014500000000000002
F0.1492
tp771
a(F0.0125
F0.1642
tp772
a(F0.014500000000000002
F0.1442
tp773
a(F0.013500000000000002
F0.1492
tp774
a(F0.013500000000000002
F0.1642
tp775
a(F0.013500000000000002
F0.16920000000000002
tp776
a(F0.013500000000000002
F0.17420000000000002
tp777
a(F0.0165
F0.1442
tp778
a(F0.0115
F0.17420000000000002
tp779
a(F0.0135
F0.1392
tp780
a(F0.014500000000000002
F0.1642
tp781
a(F0.014499999999999999
F0.1442
tp782
a(F0.0155
F0.13419999999999999
tp783
a(F0.013500000000000002
F0.1442
tp784
a(F0.014500000000000002
F0.16920000000000002
tp785
a(F0.0125
F0.1342
tp786
a(F0.0165
F0.1492
tp787
a(F0.013500000000000002
F0.13419999999999999
tp788
a(F0.013500000000000002
F0.1542
tp789
a(F0.013500000000000002
F0.1392
tp790
a(F0.014499999999999999
F0.1392
tp791
a(F0.0135
F0.1442
tp792
a(F0.0125
F0.1492
tp793
a(F0.014499999999999999
F0.1492
tp794
a(F0.0125
F0.1592
tp795
a(F0.0115
F0.16920000000000002
tp796
a(F0.0145
F0.13419999999999999
tp797
a(F0.014500000000000002
F0.1592
tp798
a(F0.0145
F0.1342
tp799
a(F0.0125
F0.17420000000000002
tp800
a(F0.013500000000000002
F0.1592
tp801
a(F0.0145
F0.1442
tp802
a(F0.0165
F0.1392
tp803
a(F0.0145
F0.1392
tp804
a(F0.014500000000000002
F0.1542
tp805
a(F0.0125
F0.1542
tp806
a(F0.0155
F0.1492
tp807
a(F0.0135
F0.1342
tp808
a(F0.0125
F0.1442
tp809
a(F0.0145
F0.1492
tp810
a(F0.0155
F0.1392
tp811
a(F0.0155
F0.1442
tp812
a(F0.0125
F0.1392
tp813
a(F0.0115
F0.1592
tp814
assI8
(dp815
g2
g3
(g4
(I0
tp816
g6
tp817
Rp818
(I1
(L8L
tp819
g13
I00
S'\x94\xa6\x17\x83v1\x90@l\xb8o9^$\xa0@\xaf\xf1\xba\xf8\x99[\xaa@*\xb6\xfe\xe4\x00$\xb2@K\x1b=Hl\x0b\xb6@8N+7t\xf2\xb6@h\x83\x8az\xd9\xd9\xb5@(\xb2\xf4v\ti\xb3@'
p820
tp821
bsg18
(lp822
g20
(g13
S']\xce#;\\\xd4\x86?'
p823
tp824
Rp825
ag20
(g13
S'&a\x05"\x89d\xc0?'
p826
tp827
Rp828
asg27
I46
sg28
(F0.014100000000000001
F0.15810000000000002
g20
(g13
S'\xf3+k\x04\xed\xd5\xe6@'
p829
tp830
Rp831
tp832
sg33
g20
(g13
S'\xa2\x00\x12\xc8\x0f\x82\xee?'
p833
tp834
Rp835
sg37
(lp836
(F0.0111
F0.1231
tp837
a(F0.016100000000000003
F0.1531
tp838
a(F0.014100000000000001
F0.15810000000000002
tp839
a(F0.016100000000000003
F0.1481
tp840
a(F0.0131
F0.1331
tp841
a(F0.014100000000000001
F0.1331
tp842
a(F0.0131
F0.12309999999999999
tp843
a(F0.011099999999999999
F0.12309999999999999
tp844
a(F0.011099999999999999
F0.1331
tp845
a(F0.0111
F0.1281
tp846
a(F0.015100000000000002
F0.1531
tp847
a(F0.014100000000000001
F0.1431
tp848
a(F0.0121
F0.1381
tp849
a(F0.0121
F0.12309999999999999
tp850
a(F0.0131
F0.1281
tp851
a(F0.0121
F0.1281
tp852
a(F0.0131
F0.1431
tp853
a(F0.0121
F0.15810000000000002
tp854
a(F0.016100000000000003
F0.1431
tp855
a(F0.0131
F0.1531
tp856
a(F0.011099999999999999
F0.1281
tp857
a(F0.015100000000000002
F0.15810000000000002
tp858
a(F0.0131
F0.15810000000000002
tp859
a(F0.0131
F0.16310000000000002
tp860
a(F0.0111
F0.1331
tp861
a(F0.011099999999999999
F0.1381
tp862
a(F0.0121
F0.1531
tp863
a(F0.014100000000000001
F0.1481
tp864
a(F0.0101
F0.1281
tp865
a(F0.0101
F0.1331
tp866
a(F0.0121
F0.1431
tp867
a(F0.0131
F0.1481
tp868
a(F0.0121
F0.1481
tp869
a(F0.014100000000000001
F0.16310000000000002
tp870
a(F0.0131
F0.1381
tp871
a(F0.0121
F0.1331
tp872
a(F0.014100000000000001
F0.1381
tp873
a(F0.015100000000000002
F0.1431
tp874
a(F0.015100000000000002
F0.1331
tp875
a(F0.014100000000000001
F0.1531
tp876
a(F0.015100000000000002
F0.1381
tp877
a(F0.0101
F0.1231
tp878
a(F0.015100000000000002
F0.16310000000000002
tp879
a(F0.015100000000000002
F0.1481
tp880
a(F0.014100000000000001
F0.1281
tp881
a(F0.0121
F0.1231
tp882
assI9
(dp883
g2
g3
(g4
(I0
tp884
g6
tp885
Rp886
(I1
(L8L
tp887
g13
I00
S'\x17<\x00\xd8@\x8e\x8c@4\x17\x99\xd4\xd3\r\x9e@\xb4\xf4\xc9\xdb\t?\xa9@\x91-Ck\xc5\xbf\xb1@\x19\xfe:\x860x\xb5@>[=\xbaOw\xb7@&~\xec\x82\xda\x83\xb6@q/|^\x83\xd1\xb3@'
p888
tp889
bsg18
(lp890
g20
(g13
S'\xb5"\xf0\xe5:\xdd\x82?'
p891
tp892
Rp893
ag20
(g13
S'\x81Gm\xca\xd5Z\xc0?'
p894
tp895
Rp896
asg27
I54
sg28
(F0.012200000000000003
F0.16780000000000003
g20
(g13
S'P\x174j\xc8\xba\xe6@'
p897
tp898
Rp899
tp900
sg33
g20
(g13
S'\xf7\xde\xa4N=\xc3\xee?'
p901
tp902
Rp903
sg37
(lp904
(F0.011200000000000002
F0.1428
tp905
a(F0.011200000000000002
F0.1178
tp906
a(F0.014200000000000004
F0.16280000000000003
tp907
a(F0.011200000000000002
F0.1378
tp908
a(F0.015200000000000005
F0.15280000000000002
tp909
a(F0.0082
F0.1328
tp910
a(F0.012200000000000003
F0.1428
tp911
a(F0.0102
F0.1228
tp912
a(F0.014200000000000004
F0.15780000000000002
tp913
a(F0.013200000000000003
F0.1378
tp914
a(F0.0082
F0.1228
tp915
a(F0.012200000000000003
F0.1278
tp916
a(F0.015200000000000005
F0.15780000000000002
tp917
a(F0.0082
F0.1278
tp918
a(F0.012200000000000003
F0.17280000000000004
tp919
a(F0.013200000000000003
F0.1428
tp920
a(F0.011200000000000002
F0.16780000000000003
tp921
a(F0.012200000000000003
F0.16280000000000003
tp922
a(F0.0092
F0.1278
tp923
a(F0.013200000000000003
F0.15780000000000002
tp924
a(F0.013200000000000003
F0.1328
tp925
a(F0.0102
F0.1278
tp926
a(F0.011200000000000002
F0.14780000000000001
tp927
a(F0.012200000000000003
F0.15780000000000002
tp928
a(F0.011200000000000002
F0.15780000000000002
tp929
a(F0.011200000000000002
F0.1278
tp930
a(F0.011200000000000002
F0.15280000000000002
tp931
a(F0.013200000000000003
F0.16280000000000003
tp932
a(F0.011200000000000002
F0.17280000000000004
tp933
a(F0.0102
F0.1428
tp934
a(F0.013200000000000003
F0.15280000000000002
tp935
a(F0.0092
F0.1228
tp936
a(F0.012200000000000003
F0.1328
tp937
a(F0.0102
F0.1328
tp938
a(F0.012200000000000003
F0.16780000000000003
tp939
a(F0.011200000000000002
F0.16280000000000003
tp940
a(F0.0092
F0.1378
tp941
a(F0.015200000000000005
F0.14780000000000001
tp942
a(F0.011200000000000002
F0.1228
tp943
a(F0.013200000000000003
F0.17280000000000004
tp944
a(F0.012200000000000003
F0.1378
tp945
a(F0.014200000000000004
F0.1428
tp946
a(F0.012200000000000003
F0.15280000000000002
tp947
a(F0.0102
F0.1178
tp948
a(F0.011200000000000002
F0.1328
tp949
a(F0.0102
F0.1378
tp950
a(F0.0092
F0.1178
tp951
a(F0.012200000000000003
F0.14780000000000001
tp952
a(F0.014200000000000004
F0.16780000000000003
tp953
a(F0.013200000000000003
F0.16780000000000003
tp954
a(F0.014200000000000004
F0.14780000000000001
tp955
a(F0.0092
F0.1328
tp956
a(F0.013200000000000003
F0.14780000000000001
tp957
a(F0.014200000000000004
F0.15280000000000002
tp958
ass.