(dp0
I0
(dp1
S'best_curve'
p2
cnumpy.core.multiarray
_reconstruct
p3
(cnumpy
ndarray
p4
(I0
tp5
S'b'
p6
tp7
Rp8
(I1
(L8L
tp9
cnumpy
dtype
p10
(S'f8'
p11
I0
I1
tp12
Rp13
(I3
S'<'
p14
NNNI-1
I-1
I0
tp15
bI00
S'F\x89hK"\x94\x8d@ :P\x050\xda\x9b@~\xe1\x01\xe2\x00\x9d\xa7@\xb1\xac\xcc\x9a\xaf\xbc\xb1@\xbd\x80A\xaa\x18Q\xb6@q\xd2\x16\xbf"p\xb8@#\xa0B\xcd\x08\x9e\xb6@L\xeeuy\x08l\xb2@'
p16
tp17
bsS'pq0'
p18
(lp19
cnumpy.core.multiarray
scalar
p20
(g13
S'\xa3W\xdb\xe4\x9f,\x8e?'
p21
tp22
Rp23
ag20
(g13
S'\xbb"Q8\xb7\xcc\xbb?'
p24
tp25
Rp26
asS'steps'
p27
I38
sS'params'
p28
(F0.014699999999999998
F0.12360000000000002
g20
(g13
S"'\xc69Im\xd7\xe5@"
p29
tp30
Rp31
tp32
sS'fitness'
p33
g20
(g13
S'\x9a\x0e\x15\xe0!C\xef?'
p34
tp35
Rp36
sS'path'
p37
(lp38
(F0.012699999999999996
F0.12860000000000002
tp39
a(F0.0137
F0.1036
tp40
a(F0.013699999999999997
F0.12860000000000002
tp41
a(F0.0167
F0.12860000000000002
tp42
a(F0.013699999999999997
F0.12360000000000002
tp43
a(F0.014699999999999998
F0.1136
tp44
a(F0.0167
F0.12360000000000002
tp45
a(F0.014699999999999998
F0.13360000000000002
tp46
a(F0.0167
F0.1036
tp47
a(F0.0157
F0.1036
tp48
a(F0.0157
F0.12360000000000002
tp49
a(F0.0167
F0.1136
tp50
a(F0.0157
F0.1086
tp51
a(F0.013699999999999997
F0.13360000000000002
tp52
a(F0.014699999999999998
F0.12860000000000002
tp53
a(F0.0177
F0.1136
tp54
a(F0.014699999999999998
F0.1036
tp55
a(F0.014699999999999998
F0.11860000000000001
tp56
a(F0.0167
F0.11860000000000001
tp57
a(F0.0137
F0.1086
tp58
a(F0.012699999999999996
F0.12360000000000002
tp59
a(F0.0167
F0.1086
tp60
a(F0.0157
F0.1136
tp61
a(F0.013699999999999997
F0.11860000000000001
tp62
a(F0.012699999999999996
F0.13860000000000003
tp63
a(F0.014699999999999998
F0.13860000000000003
tp64
a(F0.0147
F0.1036
tp65
a(F0.014699999999999998
F0.12360000000000002
tp66
a(F0.0147
F0.1086
tp67
a(F0.0147
F0.1136
tp68
a(F0.0177
F0.11860000000000001
tp69
a(F0.012699999999999996
F0.13360000000000002
tp70
a(F0.0157
F0.12860000000000002
tp71
a(F0.014699999999999998
F0.1086
tp72
a(F0.0137
F0.1136
tp73
a(F0.0157
F0.11860000000000001
tp74
a(F0.0177
F0.1086
tp75
a(F0.013699999999999997
F0.13860000000000003
tp76
assI1
(dp77
g2
g3
(g4
(I0
tp78
g6
tp79
Rp80
(I1
(L8L
tp81
g13
I00
S'\xee\x9e\x9cG\xb4i\x8b@\x14\xca\x0b\x90s\t\x9b@\x19#\x13{\r\xd9\xa7@\x9a\xd5wZb\x03\xb2@\x84\xd9\x99\xfd\xca\x8a\xb6@\x96\xee/\xdb\xae\x91\xb8@\x16\x1d\x90\xdf\n{\xb6@\xbd\xb3C=\x12\xf4\xb1@'
p82
tp83
bsg18
(lp84
g20
(g13
S'9\xcb\xd0\xdc\xa5\x0c\x90?'
p85
tp86
Rp87
ag20
(g13
S'i\x06\x82\xf5\x8c\x02\xbd?'
p88
tp89
Rp90
asg27
I35
sg28
(F0.013699999999999997
F0.1283
g20
(g13
S'\xee=\xdf\xbd\xe8\\\xe5@'
p91
tp92
Rp93
tp94
sg33
g20
(g13
S'\xe7Wu\xef\x98X\xef?'
p95
tp96
Rp97
sg37
(lp98
(F0.013699999999999997
F0.1233
tp99
a(F0.0167
F0.1183
tp100
a(F0.013699999999999997
F0.12329999999999999
tp101
a(F0.0157
F0.1283
tp102
a(F0.0157
F0.1133
tp103
a(F0.013699999999999997
F0.1183
tp104
a(F0.0167
F0.1083
tp105
a(F0.0167
F0.1233
tp106
a(F0.0177
F0.1133
tp107
a(F0.014699999999999998
F0.12329999999999999
tp108
a(F0.0147
F0.1083
tp109
a(F0.013699999999999997
F0.1283
tp110
a(F0.011699999999999995
F0.1333
tp111
a(F0.0167
F0.1133
tp112
a(F0.014699999999999998
F0.1333
tp113
a(F0.0157
F0.1183
tp114
a(F0.012699999999999996
F0.1383
tp115
a(F0.014699999999999998
F0.1233
tp116
a(F0.013699999999999997
F0.1333
tp117
a(F0.014699999999999998
F0.1283
tp118
a(F0.014699999999999998
F0.1133
tp119
a(F0.0147
F0.1133
tp120
a(F0.011699999999999995
F0.1283
tp121
a(F0.012699999999999996
F0.1333
tp122
a(F0.0177
F0.1183
tp123
a(F0.013699999999999997
F0.1383
tp124
a(F0.014699999999999998
F0.1183
tp125
a(F0.012699999999999996
F0.12329999999999999
tp126
a(F0.0157
F0.1233
tp127
a(F0.0157
F0.1083
tp128
a(F0.012699999999999996
F0.1283
tp129
a(F0.0177
F0.1083
tp130
a(F0.0167
F0.1283
tp131
a(F0.0147
F0.1183
tp132
a(F0.011699999999999995
F0.1383
tp133
assI2
(dp134
g2
g3
(g4
(I0
tp135
g6
tp136
Rp137
(I1
(L8L
tp138
g13
I00
S'\xcc\xf70\xcb\xffb\x8e@;O\xb8f\xc44\x9c@\xfd\xd8]Dv\x89\xa7@cj\xdc\x9a\xa6\xb2\xb1@\x83!M\x8e(t\xb6@\x0c\xd05\xe0\x042\xb8@\x0f0\xcb?P\x99\xb6@}\xea\x9f\xb10\x9a\xb2@'
p139
tp140
bsg18
(lp141
g20
(g13
S'\x1es\xde\xde\xc6\x9a\x90?'
p142
tp143
Rp144
ag20
(g13
S'8F\xfb\xfe\x04\x1a\xbc?'
p145
tp146
Rp147
asg27
I33
sg28
(F0.015200000000000002
F0.1198
g20
(g13
S'\xfd%a@\xe1\x1f\xe6@'
p148
tp149
Rp150
tp151
sg33
g20
(g13
S'\xeb\xb9\xdf\x97\x17A\xef?'
p152
tp153
Rp154
sg37
(lp155
(F0.0142
F0.1198
tp156
a(F0.0172
F0.1098
tp157
a(F0.0152
F0.1098
tp158
a(F0.0172
F0.1198
tp159
a(F0.0132
F0.1148
tp160
a(F0.0152
F0.1198
tp161
a(F0.0162
F0.1098
tp162
a(F0.0182
F0.1148
tp163
a(F0.0172
F0.1048
tp164
a(F0.0182
F0.1198
tp165
a(F0.0132
F0.12480000000000001
tp166
a(F0.0162
F0.1198
tp167
a(F0.015199999999999998
F0.1198
tp168
a(F0.0162
F0.1148
tp169
a(F0.0142
F0.1098
tp170
a(F0.016200000000000003
F0.1198
tp171
a(F0.0162
F0.1048
tp172
a(F0.015200000000000002
F0.12480000000000001
tp173
a(F0.0172
F0.1148
tp174
a(F0.0172
F0.12480000000000001
tp175
a(F0.016200000000000003
F0.1148
tp176
a(F0.0142
F0.12480000000000001
tp177
a(F0.015200000000000002
F0.1148
tp178
a(F0.015199999999999998
F0.1148
tp179
a(F0.0162
F0.12480000000000001
tp180
a(F0.015199999999999998
F0.12480000000000001
tp181
a(F0.016200000000000003
F0.12480000000000001
tp182
a(F0.0152
F0.1048
tp183
a(F0.0152
F0.1148
tp184
a(F0.0132
F0.1198
tp185
a(F0.015200000000000002
F0.1198
tp186
a(F0.0182
F0.1098
tp187
a(F0.0142
F0.1148
tp188
assI3
(dp189
g2
g3
(g4
(I0
tp190
g6
tp191
Rp192
(I1
(L8L
tp193
g13
I00
S'.\x98k\xb3h\x18\x8a@.\x98k\xb3h\x18\x9a@\xd0\x162\x9d\x12\xb5\xa6@?\xeb\xb3m\xad\xd2\xb1@\x056`\x92P\xfb\xb6@\xee\xf5\xc4\xdb<\xab\xb8@\x08\xea\xefiJP\xb6@o\x11Z2\xa0(\xb2@'
p194
tp195
bsg18
(lp196
g20
(g13
S'+N\xa8\xe7\x1d\xf9\x8f?'
p197
tp198
Rp199
ag20
(g13
S';[0\xfd\xaa\x02\xbc?'
p200
tp201
Rp202
asg27
I35
sg28
(F0.013599999999999998
F0.12940000000000002
g20
(g13
S'\x15w!\xbb\x92M\xe5@'
p203
tp204
Rp205
tp206
sg33
g20
(g13
S'[\xeaCd\xc9a\xef?'
p207
tp208
Rp209
sg37
(lp210
(F0.012599999999999997
F0.13440000000000002
tp211
a(F0.014599999999999998
F0.1194
tp212
a(F0.0166
F0.1094
tp213
a(F0.014599999999999998
F0.12940000000000002
tp214
a(F0.013599999999999998
F0.13940000000000002
tp215
a(F0.013599999999999998
F0.1144
tp216
a(F0.0156
F0.1144
tp217
a(F0.013599999999999998
F0.12940000000000002
tp218
a(F0.0156
F0.1044
tp219
a(F0.0166
F0.12440000000000001
tp220
a(F0.014599999999999998
F0.13440000000000002
tp221
a(F0.0176
F0.1144
tp222
a(F0.014599999999999998
F0.12440000000000001
tp223
a(F0.0146
F0.1094
tp224
a(F0.014599999999999998
F0.13940000000000002
tp225
a(F0.0156
F0.1094
tp226
a(F0.013599999999999998
F0.12440000000000001
tp227
a(F0.0156
F0.12440000000000001
tp228
a(F0.012599999999999997
F0.13940000000000002
tp229
a(F0.0166
F0.1144
tp230
a(F0.0176
F0.1194
tp231
a(F0.0166
F0.1044
tp232
a(F0.013599999999999998
F0.1194
tp233
a(F0.013599999999999998
F0.13440000000000002
tp234
a(F0.0146
F0.1044
tp235
a(F0.014599999999999998
F0.1094
tp236
a(F0.0146
F0.1144
tp237
a(F0.0166
F0.1194
tp238
a(F0.0156
F0.12940000000000002
tp239
a(F0.014599999999999998
F0.1144
tp240
a(F0.0156
F0.1194
tp241
a(F0.012599999999999997
F0.12940000000000002
tp242
a(F0.0176
F0.1094
tp243
a(F0.012599999999999997
F0.12440000000000001
tp244
a(F0.0176
F0.12440000000000001
tp245
assI4
(dp246
g2
g3
(g4
(I0
tp247
g6
tp248
Rp249
(I1
(L8L
tp250
g13
I00
S'\xee\r\xcb\x88dq\x8c@\x7f\x86\x94\x8c\xfc:\x9b@\x83oaW\xcdl\xa7@\xe6\x80\x89\x8f\xb6\xf2\xb1@9\x80/\xfaX\xb3\xb6@\x9e\xd1\xaa\xc0\x1ar\xb8@]U\xae\xf6\xf3n\xb6@\xce\xec\xe7\x8er&\xb2@'
p251
tp252
bsg18
(lp253
g20
(g13
S'\x04\x04\xa5\xf3\xc3\xb5\x90?'
p254
tp255
Rp256
ag20
(g13
S'\x01\x15\x9f\x00\xf5\xc1\xbc?'
p257
tp258
Rp259
asg27
I48
sg28
(F0.0143
F0.1273
g20
(g13
S'\xf9O,\xd7Uh\xe5@'
p260
tp261
Rp262
tp263
sg33
g20
(g13
S'\xa4a\xf8\xf5\x16^\xef?'
p264
tp265
Rp266
sg37
(lp267
(F0.0153
F0.1123
tp268
a(F0.0163
F0.1273
tp269
a(F0.0143
F0.12229999999999999
tp270
a(F0.015299999999999998
F0.1323
tp271
a(F0.015300000000000001
F0.1173
tp272
a(F0.014299999999999997
F0.1323
tp273
a(F0.0133
F0.1223
tp274
a(F0.0163
F0.1073
tp275
a(F0.0143
F0.1373
tp276
a(F0.0173
F0.1073
tp277
a(F0.0153
F0.1073
tp278
a(F0.0133
F0.1173
tp279
a(F0.015299999999999998
F0.12229999999999999
tp280
a(F0.0133
F0.1373
tp281
a(F0.0163
F0.1173
tp282
a(F0.014299999999999997
F0.12229999999999999
tp283
a(F0.0143
F0.1273
tp284
a(F0.012299999999999998
F0.1273
tp285
a(F0.015299999999999998
F0.1273
tp286
a(F0.0143
F0.1123
tp287
a(F0.0173
F0.1123
tp288
a(F0.0133
F0.12229999999999999
tp289
a(F0.012299999999999998
F0.1373
tp290
a(F0.015300000000000001
F0.1223
tp291
a(F0.015299999999999998
F0.1123
tp292
a(F0.015300000000000001
F0.1323
tp293
a(F0.015299999999999998
F0.1173
tp294
a(F0.0133
F0.1273
tp295
a(F0.0163
F0.1123
tp296
a(F0.013299999999999996
F0.1273
tp297
a(F0.0143
F0.1323
tp298
a(F0.0143
F0.1223
tp299
a(F0.015300000000000001
F0.1273
tp300
a(F0.015299999999999998
F0.1223
tp301
a(F0.014299999999999997
F0.1173
tp302
a(F0.0143
F0.1173
tp303
a(F0.0163
F0.1223
tp304
a(F0.0173
F0.1223
tp305
a(F0.014299999999999997
F0.1273
tp306
a(F0.0133
F0.1323
tp307
a(F0.015300000000000001
F0.12229999999999999
tp308
a(F0.013299999999999996
F0.1323
tp309
a(F0.012299999999999998
F0.1323
tp310
a(F0.0173
F0.1173
tp311
a(F0.014299999999999997
F0.1223
tp312
a(F0.0153
F0.1173
tp313
a(F0.0153
F0.1223
tp314
a(F0.013299999999999996
F0.12229999999999999
tp315
assI5
(dp316
g2
g3
(g4
(I0
tp317
g6
tp318
Rp319
(I1
(L8L
tp320
g13
I00
S'\ty\x81s\x19o\x8f@\xe8\x14\x10\xaa2?\x9c@\xc5\xf3Z\x1b\x86\xb6\xa7@\xc9\x8e\xa2\x9f^\xd2\xb1@9{\x92\xe3\xd3x\xb6@\xe4\xc3\xc0\xb2XL\xb8@\x1b\xaa3\x00\x0fr\xb6@\x90\xd1g\xe5Yk\xb2@'
p321
tp322
bsg18
(lp323
g20
(g13
S'\x8b\x82\xa9a\xf2\xab\x91?'
p324
tp325
Rp326
ag20
(g13
S'\x90\xc0\xca\x83;e\xbd?'
p327
tp328
Rp329
asg27
I18
sg28
(F0.0163
F0.1198
g20
(g13
S'\xf0\n\xa6x\xe9\x08\xe6@'
p330
tp331
Rp332
tp333
sg33
g20
(g13
S'\xf3\xff\x0c\t\x01=\xef?'
p334
tp335
Rp336
sg37
(lp337
(F0.015299999999999998
F0.12480000000000001
tp338
a(F0.0183
F0.1198
tp339
a(F0.015299999999999998
F0.1148
tp340
a(F0.0173
F0.1148
tp341
a(F0.014299999999999997
F0.1198
tp342
a(F0.0163
F0.1098
tp343
a(F0.015299999999999998
F0.1098
tp344
a(F0.014299999999999997
F0.12480000000000001
tp345
a(F0.0183
F0.1098
tp346
a(F0.0173
F0.1198
tp347
a(F0.0163
F0.12480000000000001
tp348
a(F0.015299999999999998
F0.1198
tp349
a(F0.0183
F0.1148
tp350
a(F0.0173
F0.12480000000000001
tp351
a(F0.014299999999999997
F0.1148
tp352
a(F0.0173
F0.1098
tp353
a(F0.0163
F0.1198
tp354
a(F0.0163
F0.1148
tp355
assI6
(dp356
g2
g3
(g4
(I0
tp357
g6
tp358
Rp359
(I1
(L8L
tp360
g13
I00
S"\xa2Q\x8b\xfc\xe1\x95\x8e@\x84_Y~\x16\x1e\x9b@\xd3`o\xd5\xddj\xa7@\xb1\x0e\x85'\x81\x9a\xb1@\x1a7\xef\xd2K\\\xb6@\xae\x92z\xe4\xda1\xb8@\xc6\xa0g\xf2\x1a\xe1\xb6@\xcfs\xf5 x\x9c\xb2@"
p361
tp362
bsg18
(lp363
g20
(g13
S'\x08\xb5|m=\xa8\x90?'
p364
tp365
Rp366
ag20
(g13
S'h\xaec\x0e_x\xbc?'
p367
tp368
Rp369
asg27
I36
sg28
(F0.0153
F0.1212
g20
(g13
S'\x05\xb6Z\xcd\x80\xfb\xe5@'
p370
tp371
Rp372
tp373
sg33
g20
(g13
S'\xd5\xb8\x9a\xad\xd9J\xef?'
p374
tp375
Rp376
sg37
(lp377
(F0.0153
F0.1112
tp378
a(F0.015299999999999998
F0.1112
tp379
a(F0.012299999999999998
F0.1212
tp380
a(F0.0133
F0.1312
tp381
a(F0.0163
F0.1112
tp382
a(F0.0133
F0.1212
tp383
a(F0.015300000000000001
F0.1162
tp384
a(F0.015299999999999998
F0.1212
tp385
a(F0.0143
F0.1162
tp386
a(F0.015300000000000001
F0.1312
tp387
a(F0.0163
F0.1212
tp388
a(F0.0143
F0.1212
tp389
a(F0.015300000000000001
F0.1212
tp390
a(F0.012299999999999998
F0.1262
tp391
a(F0.015300000000000001
F0.1262
tp392
a(F0.0153
F0.1212
tp393
a(F0.0173
F0.1212
tp394
a(F0.0153
F0.1262
tp395
a(F0.015299999999999998
F0.1162
tp396
a(F0.0133
F0.13620000000000002
tp397
a(F0.0143
F0.1262
tp398
a(F0.0173
F0.1112
tp399
a(F0.0153
F0.1162
tp400
a(F0.015300000000000001
F0.13620000000000002
tp401
a(F0.0163
F0.1262
tp402
a(F0.0163
F0.1062
tp403
a(F0.012299999999999998
F0.1312
tp404
a(F0.0173
F0.1062
tp405
a(F0.0153
F0.1062
tp406
a(F0.0133
F0.1162
tp407
a(F0.0163
F0.1162
tp408
a(F0.0143
F0.13620000000000002
tp409
a(F0.0143
F0.1112
tp410
a(F0.0133
F0.1262
tp411
a(F0.0173
F0.1162
tp412
a(F0.0143
F0.1312
tp413
assI7
(dp414
g2
g3
(g4
(I0
tp415
g6
tp416
Rp417
(I1
(L8L
tp418
g13
I00
S'\xc4\xed\x9a\x90\xc1E\x8a@n\xf8\xc7\x19{\xfa\x99@\x1d\xdf\xdas\xb7\xe6\xa6@h\x1e\x927\x16\xc0\xb1@\xc2\x8cK>\xb3\xb5\xb6@\x08\xbb\x9e\x8f}\xa2\xb8@u\x83\x05xS\xb8\xb6@}\xfc\xb5>\xed\x11\xb2@'
p419
tp420
bsg18
(lp421
g20
(g13
S';\x93$dN\xef\x90?'
p422
tp423
Rp424
ag20
(g13
S'>\x11\xc2\xc2\x7f*\xbd?'
p425
tp426
Rp427
asg27
I25
sg28
(F0.013499999999999998
F0.12890000000000001
g20
(g13
S'AL`\xc7\x95^\xe5@'
p428
tp429
Rp430
tp431
sg33
g20
(g13
S'\xe4\x85\x1f\x9c&h\xef?'
p432
tp433
Rp434
sg37
(lp435
(F0.0155
F0.1139
tp436
a(F0.0155
F0.12390000000000001
tp437
a(F0.0165
F0.1139
tp438
a(F0.013499999999999998
F0.12890000000000001
tp439
a(F0.0165
F0.1189
tp440
a(F0.0175
F0.1089
tp441
a(F0.0175
F0.1189
tp442
a(F0.012499999999999997
F0.12890000000000001
tp443
a(F0.013499999999999998
F0.12390000000000001
tp444
a(F0.0155
F0.1089
tp445
a(F0.0155
F0.1189
tp446
a(F0.012499999999999997
F0.1189
tp447
a(F0.013499999999999998
F0.13390000000000002
tp448
a(F0.014499999999999999
F0.12390000000000001
tp449
a(F0.0165
F0.12390000000000001
tp450
a(F0.012499999999999997
F0.13390000000000002
tp451
a(F0.013499999999999998
F0.1189
tp452
a(F0.014499999999999999
F0.13390000000000002
tp453
a(F0.0155
F0.12890000000000001
tp454
a(F0.0165
F0.1089
tp455
a(F0.012499999999999997
F0.12390000000000001
tp456
a(F0.0175
F0.1139
tp457
a(F0.014499999999999999
F0.1189
tp458
a(F0.014499999999999999
F0.12890000000000001
tp459
a(F0.014499999999999999
F0.1139
tp460
assI8
(dp461
g2
g3
(g4
(I0
tp462
g6
tp463
Rp464
(I1
(L8L
tp465
g13
I00
S"\xd3\x10\xc8\x07\x9c\x1e\x87@\xd2-B\x8f?\x97\x98@\xa2Wb\xb5\xabz\xa6@GG\x9at\x19\xff\xb1@(cej'S\xb7@|\xd2|TV\x00\xb9@\x80\xc7R}nL\xb6@ZM\x05\x14\x0fY\xb1@"
p466
tp467
bsg18
(lp468
g20
(g13
S'o\xf2=\xd6\x10\\\x91?'
p469
tp470
Rp471
ag20
(g13
S'\xde\xec\x9e*\xdcE\xbd?'
p472
tp473
Rp474
asg27
I41
sg28
(F0.011999999999999997
F0.1393
g20
(g13
S'\x1f)t\x85r\x86\xe4@'
p475
tp476
Rp477
tp478
sg33
g20
(g13
S'\x98\xf4O\xf2\x9aY\xef?'
p479
tp480
Rp481
sg37
(lp482
(F0.015
F0.1243
tp483
a(F0.016
F0.12430000000000001
tp484
a(F0.016
F0.1093
tp485
a(F0.013999999999999999
F0.1293
tp486
a(F0.010999999999999996
F0.1443
tp487
a(F0.012999999999999998
F0.1243
tp488
a(F0.016
F0.1193
tp489
a(F0.011999999999999997
F0.1293
tp490
a(F0.018
F0.1193
tp491
a(F0.013999999999999999
F0.1143
tp492
a(F0.012999999999999998
F0.1443
tp493
a(F0.017
F0.1093
tp494
a(F0.010999999999999996
F0.1343
tp495
a(F0.017
F0.1193
tp496
a(F0.011999999999999997
F0.1393
tp497
a(F0.015
F0.1143
tp498
a(F0.017
F0.1143
tp499
a(F0.017
F0.12430000000000001
tp500
a(F0.013999999999999999
F0.1193
tp501
a(F0.013999999999999999
F0.12430000000000001
tp502
a(F0.011999999999999997
F0.1343
tp503
a(F0.015
F0.12430000000000001
tp504
a(F0.012999999999999998
F0.1393
tp505
a(F0.016
F0.1143
tp506
a(F0.011999999999999997
F0.1443
tp507
a(F0.018000000000000002
F0.1193
tp508
a(F0.011999999999999997
F0.1243
tp509
a(F0.013999999999999999
F0.1343
tp510
a(F0.016
F0.1293
tp511
a(F0.015
F0.1293
tp512
a(F0.013999999999999999
F0.1243
tp513
a(F0.018
F0.1093
tp514
a(F0.012999999999999998
F0.1343
tp515
a(F0.018000000000000002
F0.1143
tp516
a(F0.018000000000000002
F0.1093
tp517
a(F0.012999999999999998
F0.1293
tp518
a(F0.015
F0.1193
tp519
a(F0.010999999999999996
F0.1393
tp520
a(F0.018
F0.1143
tp521
a(F0.015
F0.1343
tp522
a(F0.013999999999999999
F0.1393
tp523
assI9
(dp524
g2
g3
(g4
(I0
tp525
g6
tp526
Rp527
(I1
(L8L
tp528
g13
I00
S'/\x0evf-e\x8b@\x9b\xdd\xe5\xcb\xac_\x9a@$~K\xabJ#\xa7@\xfd\x8a\xc1G\x19\xb3\xb1@\x00z,\xd4E\xf1\xb6@oO\xca\xa7\x8en\xb8@=\x8c.E\xf8\x87\xb6@\x80s\xa4\x16d.\xb2@'
p529
tp530
bsg18
(lp531
g20
(g13
S'\xc4\xaa\xbd\x10\x9dY\x90?'
p532
tp533
Rp534
ag20
(g13
S'\xef5\xa9\x89\xa6\x17\xbd?'
p535
tp536
Rp537
asg27
I31
sg28
(F0.012999999999999998
F0.1286
g20
(g13
S'\xcct)\x82\x87l\xe5@'
p538
tp539
Rp540
tp541
sg33
g20
(g13
S'\xe8\xed\xf4\xa8_\\\xef?'
p542
tp543
Rp544
sg37
(lp545
(F0.017
F0.1086
tp546
a(F0.012999999999999998
F0.12359999999999999
tp547
a(F0.012999999999999998
F0.1286
tp548
a(F0.013999999999999999
F0.11359999999999999
tp549
a(F0.012999999999999998
F0.1236
tp550
a(F0.016
F0.1086
tp551
a(F0.016
F0.1286
tp552
a(F0.011999999999999997
F0.12359999999999999
tp553
a(F0.017
F0.1236
tp554
a(F0.013999999999999999
F0.1336
tp555
a(F0.015
F0.1186
tp556
a(F0.016
F0.1186
tp557
a(F0.013999999999999999
F0.12359999999999999
tp558
a(F0.015
F0.11359999999999999
tp559
a(F0.012999999999999998
F0.1186
tp560
a(F0.013999999999999999
F0.1286
tp561
a(F0.016
F0.1136
tp562
a(F0.013999999999999999
F0.1186
tp563
a(F0.017
F0.1136
tp564
a(F0.017
F0.11359999999999999
tp565
a(F0.011999999999999997
F0.1286
tp566
a(F0.016
F0.1236
tp567
a(F0.017
F0.1186
tp568
a(F0.015
F0.1086
tp569
a(F0.015
F0.1286
tp570
a(F0.015
F0.1236
tp571
a(F0.012999999999999998
F0.1336
tp572
a(F0.015
F0.1136
tp573
a(F0.011999999999999997
F0.1336
tp574
a(F0.016
F0.11359999999999999
tp575
a(F0.013999999999999999
F0.1236
tp576
ass.