(dp0
S'best_curve'
p1
cnumpy.core.multiarray
_reconstruct
p2
(cnumpy
ndarray
p3
(I0
tp4
S'b'
p5
tp6
Rp7
(I1
(L13L
tp8
cnumpy
dtype
p9
(S'f8'
p10
I0
I1
tp11
Rp12
(I3
S'<'
p13
NNNI-1
I-1
I0
tp14
bI00
S"L\xd8\x11\xa4\xe1|k@\x86\xf2bn\xb3\x13u@50wza\xaa|@z'\x86\x83~\x85\x83@.J(K\x15\x15\x89@\xf0$\x056g\xe0\x8e@I\xf8k\x8d\xbf\x8e\x92@\x1b\x01\xd2\xfd]\x1e\x95@\xf7\xf9\x97t\xc1D\x96@Y\xec\x8e\xd5&\xab\x96@\x03\xa7\x00M\xa0\xe2\x95@\x0e6\xf5\x12)\x90\x93@\xfd\n\x13\xd8\xc7\x89\x91@"
p15
tp16
bsS'his_best'
p17
(lp18
(lp19
(cnumpy.core.multiarray
scalar
p20
(g12
S'"4w\tR\xa7\x86?'
p21
tp22
Rp23
g20
(g12
S'\x8bJO^\xd0\x13\xb0?'
p24
tp25
Rp26
tp27
a(g20
(g12
S'\xa0\x9e3~\xe5\xbf\x8a?'
p28
tp29
Rp30
g20
(g12
S'\x8bJO^\xd0\x13\xb0?'
p31
tp32
Rp33
tp34
aa(lp35
(g20
(g12
S'\xe2\xfe\x18O\x08\x9b\x84?'
p36
tp37
Rp38
g20
(g12
S'\xd3+\xcar~[\xb1?'
p39
tp40
Rp41
tp42
a(g23
g26
tp43
aa(lp44
(g38
g41
tp45
a(g23
g26
tp46
aa(lp47
(g38
g41
tp48
a(g23
g26
tp49
aasS'steps'
p50
I28
sS'his_path'
p51
(lp52
(lp53
(F0.0121
F0.0578
tp54
a(F0.0131
F0.0578
tp55
a(F0.0111
F0.0628
tp56
a(F0.0111
F0.0528
tp57
a(F0.0121
F0.0628
tp58
a(F0.0121
F0.0528
tp59
a(F0.0111
F0.0578
tp60
a(F0.0131
F0.0528
tp61
a(F0.0131
F0.0628
tp62
aa(lp63
(F0.0121
F0.0678
tp64
a(F0.0121
F0.0578
tp65
a(F0.0141
F0.0678
tp66
a(F0.0131
F0.0578
tp67
a(F0.0111
F0.0628
tp68
a(F0.0101
F0.0578
tp69
a(F0.0111
F0.0528
tp70
a(F0.0121
F0.0628
tp71
a(F0.0101
F0.0678
tp72
a(F0.0121
F0.0528
tp73
a(F0.0111
F0.0678
tp74
a(F0.0131
F0.0678
tp75
a(F0.0111
F0.0578
tp76
a(F0.0101
F0.0628
tp77
a(F0.0131
F0.0528
tp78
a(F0.0141
F0.0628
tp79
a(F0.0131
F0.0628
tp80
a(F0.0141
F0.0578
tp81
aa(lp82
(F0.0121
F0.0578
tp83
a(F0.0111
F0.0628
tp84
a(F0.0101
F0.0578
tp85
a(F0.0111
F0.0528
tp86
a(F0.0091
F0.0678
tp87
a(F0.0091
F0.0728
tp88
a(F0.0131
F0.0528
tp89
a(F0.0141
F0.0628
tp90
a(F0.0131
F0.0628
tp91
a(F0.0121
F0.0628
tp92
a(F0.0111
F0.0678
tp93
a(F0.0131
F0.0578
tp94
a(F0.0101
F0.0728
tp95
a(F0.0101
F0.0678
tp96
a(F0.0131
F0.0678
tp97
a(F0.0091
F0.0628
tp98
a(F0.0121
F0.0678
tp99
a(F0.0141
F0.0678
tp100
a(F0.0121
F0.0528
tp101
a(F0.0141
F0.0578
tp102
a(F0.0111
F0.0728
tp103
a(F0.0111
F0.0578
tp104
a(F0.0101
F0.0628
tp105
aa(lp106
(F0.0121
F0.0578
tp107
a(F0.0111
F0.0628
tp108
a(F0.0101
F0.0578
tp109
a(F0.0111
F0.0528
tp110
a(F0.0091
F0.0678
tp111
a(F0.0091
F0.0728
tp112
a(F0.0131
F0.0528
tp113
a(F0.0141
F0.0628
tp114
a(F0.0131
F0.0628
tp115
a(F0.0121
F0.0628
tp116
a(F0.0111
F0.0678
tp117
a(F0.0131
F0.0578
tp118
a(F0.0101
F0.0728
tp119
a(F0.0101
F0.0678
tp120
a(F0.0131
F0.0678
tp121
a(F0.0091
F0.0628
tp122
a(F0.0121
F0.0678
tp123
a(F0.0141
F0.0678
tp124
a(F0.0121
F0.0528
tp125
a(F0.0141
F0.0578
tp126
a(F0.0111
F0.0728
tp127
a(F0.0111
F0.0578
tp128
a(F0.0101
F0.0628
tp129
aa(lp130
(F0.0121
F0.0578
tp131
a(F0.0111
F0.0628
tp132
a(F0.0101
F0.0578
tp133
a(F0.0111
F0.0528
tp134
a(F0.0091
F0.0678
tp135
a(F0.0091
F0.0728
tp136
a(F0.0131
F0.0528
tp137
a(F0.0141
F0.0628
tp138
a(F0.0131
F0.0628
tp139
a(F0.0121
F0.0628
tp140
a(F0.0111
F0.0678
tp141
a(F0.0131
F0.0578
tp142
a(F0.0101
F0.0728
tp143
a(F0.0101
F0.0678
tp144
a(F0.0131
F0.0678
tp145
a(F0.0091
F0.0628
tp146
a(F0.0121
F0.0678
tp147
a(F0.0141
F0.0678
tp148
a(F0.0121
F0.0528
tp149
a(F0.0141
F0.0578
tp150
a(F0.0111
F0.0728
tp151
a(F0.0111
F0.0578
tp152
a(F0.0101
F0.0628
tp153
aasS'params'
p154
(g38
g41
g20
(g12
S'\n\x11\x17tE\\\xd1@'
p155
tp156
Rp157
tp158
sS'fitness'
p159
g20
(g12
S'\x15\xf9\x93\xff\xb3\xd2\xed?'
p160
tp161
Rp162
sS'orgi_points'
p163
(lp164
g20
(g12
S'ai\xd5\xc3\x9b\xb3\x88?'
p165
tp166
Rp167
ag20
(g12
S'\x87\xd2\xa8\x93D\x98\xad?'
p168
tp169
Rp170
asS'path'
p171
(lp172
g148
ag131
a(F0.0121
F0.0578
tp173
ag134
ag144
ag141
ag143
ag149
ag139
ag132
ag136
ag133
ag138
ag137
ag146
ag152
ag142
ag147
ag140
ag151
a(F0.0121
F0.0578
tp174
a(F0.0121
F0.0628
tp175
ag135
a(F0.0121
F0.0628
tp176
a(F0.0121
F0.0678
tp177
ag145
ag150
ag153
as.